
Choice Maker.elf:     file format elf32-avr

Sections:
Idx Name          Size      VMA       LMA       File off  Algn
  0 .text         000015c0  00000000  00000000  00000094  2**1
                  CONTENTS, ALLOC, LOAD, READONLY, CODE
  1 .data         00000194  00800060  000015c0  00001654  2**0
                  CONTENTS, ALLOC, LOAD, DATA
  2 .bss          000000ba  008001f4  008001f4  000017e8  2**0
                  ALLOC
  3 .comment      00000030  00000000  00000000  000017e8  2**0
                  CONTENTS, READONLY
  4 .note.gnu.avr.deviceinfo 0000003c  00000000  00000000  00001818  2**2
                  CONTENTS, READONLY
  5 .debug_aranges 00000478  00000000  00000000  00001854  2**0
                  CONTENTS, READONLY, DEBUGGING
  6 .debug_info   000039fc  00000000  00000000  00001ccc  2**0
                  CONTENTS, READONLY, DEBUGGING
  7 .debug_abbrev 00001267  00000000  00000000  000056c8  2**0
                  CONTENTS, READONLY, DEBUGGING
  8 .debug_line   000022ee  00000000  00000000  0000692f  2**0
                  CONTENTS, READONLY, DEBUGGING
  9 .debug_frame  00000918  00000000  00000000  00008c20  2**2
                  CONTENTS, READONLY, DEBUGGING
 10 .debug_str    00001070  00000000  00000000  00009538  2**0
                  CONTENTS, READONLY, DEBUGGING
 11 .debug_loc    00001e33  00000000  00000000  0000a5a8  2**0
                  CONTENTS, READONLY, DEBUGGING
 12 .debug_ranges 000003f8  00000000  00000000  0000c3db  2**0
                  CONTENTS, READONLY, DEBUGGING

Disassembly of section .text:

00000000 <__vectors>:
       0:	0c 94 33 00 	jmp	0x66	; 0x66 <__ctors_end>
       4:	0c 94 50 00 	jmp	0xa0	; 0xa0 <__bad_interrupt>
       8:	0c 94 50 00 	jmp	0xa0	; 0xa0 <__bad_interrupt>
       c:	0c 94 50 00 	jmp	0xa0	; 0xa0 <__bad_interrupt>
      10:	0c 94 50 00 	jmp	0xa0	; 0xa0 <__bad_interrupt>
      14:	0c 94 50 00 	jmp	0xa0	; 0xa0 <__bad_interrupt>
      18:	0c 94 50 00 	jmp	0xa0	; 0xa0 <__bad_interrupt>
      1c:	0c 94 50 00 	jmp	0xa0	; 0xa0 <__bad_interrupt>
      20:	0c 94 50 00 	jmp	0xa0	; 0xa0 <__bad_interrupt>
      24:	0c 94 50 00 	jmp	0xa0	; 0xa0 <__bad_interrupt>
      28:	0c 94 1e 06 	jmp	0xc3c	; 0xc3c <__vector_10>
      2c:	0c 94 50 00 	jmp	0xa0	; 0xa0 <__bad_interrupt>
      30:	0c 94 50 00 	jmp	0xa0	; 0xa0 <__bad_interrupt>
      34:	0c 94 50 00 	jmp	0xa0	; 0xa0 <__bad_interrupt>
      38:	0c 94 50 00 	jmp	0xa0	; 0xa0 <__bad_interrupt>
      3c:	0c 94 50 00 	jmp	0xa0	; 0xa0 <__bad_interrupt>
      40:	0c 94 50 00 	jmp	0xa0	; 0xa0 <__bad_interrupt>
      44:	0c 94 50 00 	jmp	0xa0	; 0xa0 <__bad_interrupt>
      48:	0c 94 50 00 	jmp	0xa0	; 0xa0 <__bad_interrupt>
      4c:	0c 94 50 00 	jmp	0xa0	; 0xa0 <__bad_interrupt>
      50:	0c 94 50 00 	jmp	0xa0	; 0xa0 <__bad_interrupt>
      54:	e0 00       	.word	0x00e0	; ????
      56:	e2 00       	.word	0x00e2	; ????
      58:	e4 00       	.word	0x00e4	; ????
      5a:	e6 00       	.word	0x00e6	; ????
      5c:	e8 00       	.word	0x00e8	; ????
      5e:	ea 00       	.word	0x00ea	; ????
      60:	ec 00       	.word	0x00ec	; ????
      62:	ee 00       	.word	0x00ee	; ????
      64:	f0 00       	.word	0x00f0	; ????

00000066 <__ctors_end>:
      66:	11 24       	eor	r1, r1
      68:	1f be       	out	0x3f, r1	; 63
      6a:	cf e5       	ldi	r28, 0x5F	; 95
      6c:	d8 e0       	ldi	r29, 0x08	; 8
      6e:	de bf       	out	0x3e, r29	; 62
      70:	cd bf       	out	0x3d, r28	; 61

00000072 <__do_copy_data>:
      72:	11 e0       	ldi	r17, 0x01	; 1
      74:	a0 e6       	ldi	r26, 0x60	; 96
      76:	b0 e0       	ldi	r27, 0x00	; 0
      78:	e0 ec       	ldi	r30, 0xC0	; 192
      7a:	f5 e1       	ldi	r31, 0x15	; 21
      7c:	02 c0       	rjmp	.+4      	; 0x82 <__do_copy_data+0x10>
      7e:	05 90       	lpm	r0, Z+
      80:	0d 92       	st	X+, r0
      82:	a4 3f       	cpi	r26, 0xF4	; 244
      84:	b1 07       	cpc	r27, r17
      86:	d9 f7       	brne	.-10     	; 0x7e <__do_copy_data+0xc>

00000088 <__do_clear_bss>:
      88:	22 e0       	ldi	r18, 0x02	; 2
      8a:	a4 ef       	ldi	r26, 0xF4	; 244
      8c:	b1 e0       	ldi	r27, 0x01	; 1
      8e:	01 c0       	rjmp	.+2      	; 0x92 <.do_clear_bss_start>

00000090 <.do_clear_bss_loop>:
      90:	1d 92       	st	X+, r1

00000092 <.do_clear_bss_start>:
      92:	ae 3a       	cpi	r26, 0xAE	; 174
      94:	b2 07       	cpc	r27, r18
      96:	e1 f7       	brne	.-8      	; 0x90 <.do_clear_bss_loop>
      98:	0e 94 d3 02 	call	0x5a6	; 0x5a6 <main>
      9c:	0c 94 de 0a 	jmp	0x15bc	; 0x15bc <_exit>

000000a0 <__bad_interrupt>:
      a0:	0c 94 00 00 	jmp	0	; 0x0 <__vectors>

000000a4 <buttons_and_switches_initialize>:
#include <stdbool.h>
#include "buttons_and_switches.h"

volatile uint8_t bounce[NUMBER_OF_BUTTONS];

void  buttons_and_switches_initialize(void){
      a4:	80 e0       	ldi	r24, 0x00	; 0
      a6:	90 e0       	ldi	r25, 0x00	; 0
	
	for(uint8_t button_array_index = 0; button_array_index < NUMBER_OF_BUTTONS; button_array_index++)bounce[button_array_index] = 0;
      a8:	fc 01       	movw	r30, r24
      aa:	ef 5f       	subi	r30, 0xFF	; 255
      ac:	fd 4f       	sbci	r31, 0xFD	; 253
      ae:	10 82       	st	Z, r1
      b0:	01 96       	adiw	r24, 0x01	; 1
      b2:	8c 30       	cpi	r24, 0x0C	; 12
      b4:	91 05       	cpc	r25, r1
      b6:	c1 f7       	brne	.-16     	; 0xa8 <buttons_and_switches_initialize+0x4>
}
      b8:	08 95       	ret

000000ba <buttons_and_switches_start_button_is_pushed>:

uint8_t buttons_and_switches_start_button_is_pushed(void){

	uint8_t button_state = false;

	if(!(READ_PIN(PINA, START_BUTTON_PIN))){
      ba:	cf 99       	sbic	0x19, 7	; 25
      bc:	0a c0       	rjmp	.+20     	; 0xd2 <buttons_and_switches_start_button_is_pushed+0x18>
		
		if(bounce[START_BUTTON_ARRAY_INDEX] < NUMBER_OF_NO_BOUNCES)bounce[START_BUTTON_ARRAY_INDEX]++;
      be:	80 91 01 02 	lds	r24, 0x0201	; 0x800201 <bounce>
      c2:	89 31       	cpi	r24, 0x19	; 25
      c4:	40 f4       	brcc	.+16     	; 0xd6 <buttons_and_switches_start_button_is_pushed+0x1c>
      c6:	e1 e0       	ldi	r30, 0x01	; 1
      c8:	f2 e0       	ldi	r31, 0x02	; 2
      ca:	80 81       	ld	r24, Z
      cc:	8f 5f       	subi	r24, 0xFF	; 255
      ce:	80 83       	st	Z, r24
      d0:	02 c0       	rjmp	.+4      	; 0xd6 <buttons_and_switches_start_button_is_pushed+0x1c>
	}
	
	else bounce[START_BUTTON_ARRAY_INDEX] = 0;
      d2:	10 92 01 02 	sts	0x0201, r1	; 0x800201 <bounce>
	
	if(bounce[START_BUTTON_ARRAY_INDEX] == NUMBER_OF_NO_BOUNCES)button_state = true;
      d6:	90 91 01 02 	lds	r25, 0x0201	; 0x800201 <bounce>
	for(uint8_t button_array_index = 0; button_array_index < NUMBER_OF_BUTTONS; button_array_index++)bounce[button_array_index] = 0;
}

uint8_t buttons_and_switches_start_button_is_pushed(void){

	uint8_t button_state = false;
      da:	81 e0       	ldi	r24, 0x01	; 1
      dc:	99 31       	cpi	r25, 0x19	; 25
      de:	09 f0       	breq	.+2      	; 0xe2 <buttons_and_switches_start_button_is_pushed+0x28>
      e0:	80 e0       	ldi	r24, 0x00	; 0
	}
	
	else bounce[START_BUTTON_ARRAY_INDEX] = 0;
	
	if(bounce[START_BUTTON_ARRAY_INDEX] == NUMBER_OF_NO_BOUNCES)button_state = true;
	if(bounce[START_BUTTON_ARRAY_INDEX] >= NUMBER_OF_NO_BOUNCES)bounce[START_BUTTON_ARRAY_INDEX] = NUMBER_OF_NO_BOUNCES;
      e2:	90 91 01 02 	lds	r25, 0x0201	; 0x800201 <bounce>
      e6:	99 31       	cpi	r25, 0x19	; 25
      e8:	18 f0       	brcs	.+6      	; 0xf0 <buttons_and_switches_start_button_is_pushed+0x36>
      ea:	99 e1       	ldi	r25, 0x19	; 25
      ec:	90 93 01 02 	sts	0x0201, r25	; 0x800201 <bounce>
	
	return button_state;
}
      f0:	08 95       	ret

000000f2 <buzzer_initialize>:
#include "buzzer.h"
#include "timer_0.h"
#include "PWM_2.h"

void buzzer_initialize(void){
      f2:	08 95       	ret

000000f4 <buzzer_activate_tone>:
	
	//buzzer_activate_countdown_tone();
}

void buzzer_activate_tone(uint8_t duty_cycle_percentage, uint32_t time_of_enabled_tone){
      f4:	cf 92       	push	r12
      f6:	df 92       	push	r13
      f8:	ef 92       	push	r14
      fa:	ff 92       	push	r15
      fc:	6a 01       	movw	r12, r20
      fe:	7b 01       	movw	r14, r22
	
	PWM_2_set_duty_cycle_percentage(duty_cycle_percentage);
     100:	68 2f       	mov	r22, r24
     102:	70 e0       	ldi	r23, 0x00	; 0
     104:	80 e0       	ldi	r24, 0x00	; 0
     106:	90 e0       	ldi	r25, 0x00	; 0
     108:	0e 94 a2 08 	call	0x1144	; 0x1144 <__floatunsisf>
     10c:	0e 94 19 03 	call	0x632	; 0x632 <PWM_2_set_duty_cycle_percentage>
	PWM_2_enable_non_inverted_wave_form();
     110:	0e 94 0f 03 	call	0x61e	; 0x61e <PWM_2_enable_non_inverted_wave_form>
	
	timer_0_delay_in_milliseconds(time_of_enabled_tone);
     114:	c7 01       	movw	r24, r14
     116:	b6 01       	movw	r22, r12
     118:	0e 94 67 06 	call	0xcce	; 0xcce <timer_0_delay_in_milliseconds>
	PWM_2_disable();
     11c:	0e 94 14 03 	call	0x628	; 0x628 <PWM_2_disable>
}
     120:	ff 90       	pop	r15
     122:	ef 90       	pop	r14
     124:	df 90       	pop	r13
     126:	cf 90       	pop	r12
     128:	08 95       	ret

0000012a <buzzer_activate_button_has_been_pushed_tone>:

void buzzer_activate_button_has_been_pushed_tone(void){
	
	buzzer_activate_tone(196, 50);
     12a:	42 e3       	ldi	r20, 0x32	; 50
     12c:	50 e0       	ldi	r21, 0x00	; 0
     12e:	60 e0       	ldi	r22, 0x00	; 0
     130:	70 e0       	ldi	r23, 0x00	; 0
     132:	84 ec       	ldi	r24, 0xC4	; 196
     134:	0e 94 7a 00 	call	0xf4	; 0xf4 <buzzer_activate_tone>
     138:	08 95       	ret

0000013a <buzzer_activate_interaction_tone>:
}

void buzzer_activate_interaction_tone(void){
	
	buzzer_activate_tone(60, 100);
     13a:	44 e6       	ldi	r20, 0x64	; 100
     13c:	50 e0       	ldi	r21, 0x00	; 0
     13e:	60 e0       	ldi	r22, 0x00	; 0
     140:	70 e0       	ldi	r23, 0x00	; 0
     142:	8c e3       	ldi	r24, 0x3C	; 60
     144:	0e 94 7a 00 	call	0xf4	; 0xf4 <buzzer_activate_tone>
     148:	08 95       	ret

0000014a <buzzer_activate_bingo_tone>:
}

void buzzer_activate_bingo_tone(void){
	
	buzzer_activate_tone(255, 100);
     14a:	44 e6       	ldi	r20, 0x64	; 100
     14c:	50 e0       	ldi	r21, 0x00	; 0
     14e:	60 e0       	ldi	r22, 0x00	; 0
     150:	70 e0       	ldi	r23, 0x00	; 0
     152:	8f ef       	ldi	r24, 0xFF	; 255
     154:	0e 94 7a 00 	call	0xf4	; 0xf4 <buzzer_activate_tone>
     158:	08 95       	ret

0000015a <buzzer_activate_choice_has_been_made_tone>:
}

void buzzer_activate_choice_has_been_made_tone(void){
     15a:	cf 93       	push	r28
     15c:	df 93       	push	r29

	PWM_2_set_duty_cycle_percentage(50);
     15e:	60 e0       	ldi	r22, 0x00	; 0
     160:	70 e0       	ldi	r23, 0x00	; 0
     162:	88 e4       	ldi	r24, 0x48	; 72
     164:	92 e4       	ldi	r25, 0x42	; 66
     166:	0e 94 19 03 	call	0x632	; 0x632 <PWM_2_set_duty_cycle_percentage>
     16a:	d3 e0       	ldi	r29, 0x03	; 3
     16c:	1a c0       	rjmp	.+52     	; 0x1a2 <buzzer_activate_choice_has_been_made_tone+0x48>

	for(uint8_t i = 0; i < 3; i++){
		
		for(uint8_t j = 0; j < 3; j++){
			
			PWM_2_enable_non_inverted_wave_form();
     16e:	0e 94 0f 03 	call	0x61e	; 0x61e <PWM_2_enable_non_inverted_wave_form>
			timer_0_delay_in_milliseconds(50);
     172:	62 e3       	ldi	r22, 0x32	; 50
     174:	70 e0       	ldi	r23, 0x00	; 0
     176:	80 e0       	ldi	r24, 0x00	; 0
     178:	90 e0       	ldi	r25, 0x00	; 0
     17a:	0e 94 67 06 	call	0xcce	; 0xcce <timer_0_delay_in_milliseconds>
			
			PWM_2_disable();
     17e:	0e 94 14 03 	call	0x628	; 0x628 <PWM_2_disable>
			timer_0_delay_in_milliseconds(50);
     182:	62 e3       	ldi	r22, 0x32	; 50
     184:	70 e0       	ldi	r23, 0x00	; 0
     186:	80 e0       	ldi	r24, 0x00	; 0
     188:	90 e0       	ldi	r25, 0x00	; 0
     18a:	0e 94 67 06 	call	0xcce	; 0xcce <timer_0_delay_in_milliseconds>
     18e:	c1 50       	subi	r28, 0x01	; 1

	PWM_2_set_duty_cycle_percentage(50);

	for(uint8_t i = 0; i < 3; i++){
		
		for(uint8_t j = 0; j < 3; j++){
     190:	71 f7       	brne	.-36     	; 0x16e <buzzer_activate_choice_has_been_made_tone+0x14>
			
			PWM_2_disable();
			timer_0_delay_in_milliseconds(50);
		}
		
		timer_0_delay_in_milliseconds(400);
     192:	60 e9       	ldi	r22, 0x90	; 144
     194:	71 e0       	ldi	r23, 0x01	; 1
     196:	80 e0       	ldi	r24, 0x00	; 0
     198:	90 e0       	ldi	r25, 0x00	; 0
     19a:	0e 94 67 06 	call	0xcce	; 0xcce <timer_0_delay_in_milliseconds>
     19e:	d1 50       	subi	r29, 0x01	; 1

void buzzer_activate_choice_has_been_made_tone(void){

	PWM_2_set_duty_cycle_percentage(50);

	for(uint8_t i = 0; i < 3; i++){
     1a0:	11 f0       	breq	.+4      	; 0x1a6 <buzzer_activate_choice_has_been_made_tone+0x4c>
void buzzer_activate_bingo_tone(void){
	
	buzzer_activate_tone(255, 100);
}

void buzzer_activate_choice_has_been_made_tone(void){
     1a2:	c3 e0       	ldi	r28, 0x03	; 3
     1a4:	e4 cf       	rjmp	.-56     	; 0x16e <buzzer_activate_choice_has_been_made_tone+0x14>
			timer_0_delay_in_milliseconds(50);
		}
		
		timer_0_delay_in_milliseconds(400);
	}
}
     1a6:	df 91       	pop	r29
     1a8:	cf 91       	pop	r28
     1aa:	08 95       	ret

000001ac <common_get_digit>:

unsigned char common_get_digit(unsigned char digit){
	
	unsigned char character = '0';
	
	switch(digit){
     1ac:	90 e0       	ldi	r25, 0x00	; 0
     1ae:	fc 01       	movw	r30, r24
     1b0:	31 97       	sbiw	r30, 0x01	; 1
     1b2:	e9 30       	cpi	r30, 0x09	; 9
     1b4:	f1 05       	cpc	r31, r1
     1b6:	b0 f4       	brcc	.+44     	; 0x1e4 <common_get_digit+0x38>
     1b8:	e6 5d       	subi	r30, 0xD6	; 214
     1ba:	ff 4f       	sbci	r31, 0xFF	; 255
     1bc:	0c 94 20 0a 	jmp	0x1440	; 0x1440 <__tablejump2__>
		
		case 1:{
			
			character = '1';
     1c0:	81 e3       	ldi	r24, 0x31	; 49
     1c2:	08 95       	ret
			break;
		}
		
		case 2:{
			
			character = '2';
     1c4:	82 e3       	ldi	r24, 0x32	; 50
			break;
     1c6:	08 95       	ret
		}
		
		case 3:{
			
			character = '3';
     1c8:	83 e3       	ldi	r24, 0x33	; 51
			break;
     1ca:	08 95       	ret
		}
		
		case 4:{
			
			character = '4';
     1cc:	84 e3       	ldi	r24, 0x34	; 52
			break;
     1ce:	08 95       	ret
		}
		
		case 5:{
			
			character = '5';
     1d0:	85 e3       	ldi	r24, 0x35	; 53
			break;
     1d2:	08 95       	ret
		}
		
		case 6:{
			
			character = '6';
     1d4:	86 e3       	ldi	r24, 0x36	; 54
			break;
     1d6:	08 95       	ret
		}
		
		case 7:{
			
			character = '7';
     1d8:	87 e3       	ldi	r24, 0x37	; 55
			break;
     1da:	08 95       	ret
		}
		
		case 8:{
			
			character = '8';
     1dc:	88 e3       	ldi	r24, 0x38	; 56
			break;
     1de:	08 95       	ret
		}
		
		case 9:{
			
			character = '9';
     1e0:	89 e3       	ldi	r24, 0x39	; 57
			break;
     1e2:	08 95       	ret
#include <avr/io.h>
#include "common.h"

unsigned char common_get_digit(unsigned char digit){
	
	unsigned char character = '0';
     1e4:	80 e3       	ldi	r24, 0x30	; 48
			break;
		}
	}
	
	return character;
}
     1e6:	08 95       	ret

000001e8 <common_get_tenth_digit>:

unsigned char common_get_tenth_digit(uint32_t number){
	
	return common_get_digit(number / 1000000000);
     1e8:	20 e0       	ldi	r18, 0x00	; 0
     1ea:	3a ec       	ldi	r19, 0xCA	; 202
     1ec:	4a e9       	ldi	r20, 0x9A	; 154
     1ee:	5b e3       	ldi	r21, 0x3B	; 59
     1f0:	0e 94 fe 09 	call	0x13fc	; 0x13fc <__udivmodsi4>
     1f4:	82 2f       	mov	r24, r18
     1f6:	0e 94 d6 00 	call	0x1ac	; 0x1ac <common_get_digit>
}
     1fa:	08 95       	ret

000001fc <common_get_ninth_digit>:

unsigned char common_get_ninth_digit(uint32_t number){
	
	return common_get_digit((number % 1000000000) / 100000000);
     1fc:	20 e0       	ldi	r18, 0x00	; 0
     1fe:	3a ec       	ldi	r19, 0xCA	; 202
     200:	4a e9       	ldi	r20, 0x9A	; 154
     202:	5b e3       	ldi	r21, 0x3B	; 59
     204:	0e 94 fe 09 	call	0x13fc	; 0x13fc <__udivmodsi4>
     208:	20 e0       	ldi	r18, 0x00	; 0
     20a:	31 ee       	ldi	r19, 0xE1	; 225
     20c:	45 ef       	ldi	r20, 0xF5	; 245
     20e:	55 e0       	ldi	r21, 0x05	; 5
     210:	0e 94 fe 09 	call	0x13fc	; 0x13fc <__udivmodsi4>
     214:	82 2f       	mov	r24, r18
     216:	0e 94 d6 00 	call	0x1ac	; 0x1ac <common_get_digit>
}
     21a:	08 95       	ret

0000021c <common_get_eighth_digit>:

unsigned char common_get_eighth_digit(uint32_t number){
	
	return common_get_digit((number % 100000000) / 10000000);
     21c:	20 e0       	ldi	r18, 0x00	; 0
     21e:	31 ee       	ldi	r19, 0xE1	; 225
     220:	45 ef       	ldi	r20, 0xF5	; 245
     222:	55 e0       	ldi	r21, 0x05	; 5
     224:	0e 94 fe 09 	call	0x13fc	; 0x13fc <__udivmodsi4>
     228:	20 e8       	ldi	r18, 0x80	; 128
     22a:	36 e9       	ldi	r19, 0x96	; 150
     22c:	48 e9       	ldi	r20, 0x98	; 152
     22e:	50 e0       	ldi	r21, 0x00	; 0
     230:	0e 94 fe 09 	call	0x13fc	; 0x13fc <__udivmodsi4>
     234:	82 2f       	mov	r24, r18
     236:	0e 94 d6 00 	call	0x1ac	; 0x1ac <common_get_digit>
}
     23a:	08 95       	ret

0000023c <common_get_seventh_digit>:

unsigned char common_get_seventh_digit(uint32_t number){
	
	return common_get_digit((number % 10000000) / 1000000);
     23c:	20 e8       	ldi	r18, 0x80	; 128
     23e:	36 e9       	ldi	r19, 0x96	; 150
     240:	48 e9       	ldi	r20, 0x98	; 152
     242:	50 e0       	ldi	r21, 0x00	; 0
     244:	0e 94 fe 09 	call	0x13fc	; 0x13fc <__udivmodsi4>
     248:	20 e4       	ldi	r18, 0x40	; 64
     24a:	32 e4       	ldi	r19, 0x42	; 66
     24c:	4f e0       	ldi	r20, 0x0F	; 15
     24e:	50 e0       	ldi	r21, 0x00	; 0
     250:	0e 94 fe 09 	call	0x13fc	; 0x13fc <__udivmodsi4>
     254:	82 2f       	mov	r24, r18
     256:	0e 94 d6 00 	call	0x1ac	; 0x1ac <common_get_digit>
}
     25a:	08 95       	ret

0000025c <common_get_sixth_digit>:

unsigned char common_get_sixth_digit(uint32_t number){
	
	return common_get_digit((number % 1000000) / 100000);
     25c:	20 e4       	ldi	r18, 0x40	; 64
     25e:	32 e4       	ldi	r19, 0x42	; 66
     260:	4f e0       	ldi	r20, 0x0F	; 15
     262:	50 e0       	ldi	r21, 0x00	; 0
     264:	0e 94 fe 09 	call	0x13fc	; 0x13fc <__udivmodsi4>
     268:	20 ea       	ldi	r18, 0xA0	; 160
     26a:	36 e8       	ldi	r19, 0x86	; 134
     26c:	41 e0       	ldi	r20, 0x01	; 1
     26e:	50 e0       	ldi	r21, 0x00	; 0
     270:	0e 94 fe 09 	call	0x13fc	; 0x13fc <__udivmodsi4>
     274:	82 2f       	mov	r24, r18
     276:	0e 94 d6 00 	call	0x1ac	; 0x1ac <common_get_digit>
}
     27a:	08 95       	ret

0000027c <common_get_fifth_digit>:

unsigned char common_get_fifth_digit(uint32_t number){
	
	return common_get_digit((number % 100000) / 10000);
     27c:	20 ea       	ldi	r18, 0xA0	; 160
     27e:	36 e8       	ldi	r19, 0x86	; 134
     280:	41 e0       	ldi	r20, 0x01	; 1
     282:	50 e0       	ldi	r21, 0x00	; 0
     284:	0e 94 fe 09 	call	0x13fc	; 0x13fc <__udivmodsi4>
     288:	20 e1       	ldi	r18, 0x10	; 16
     28a:	37 e2       	ldi	r19, 0x27	; 39
     28c:	40 e0       	ldi	r20, 0x00	; 0
     28e:	50 e0       	ldi	r21, 0x00	; 0
     290:	0e 94 fe 09 	call	0x13fc	; 0x13fc <__udivmodsi4>
     294:	82 2f       	mov	r24, r18
     296:	0e 94 d6 00 	call	0x1ac	; 0x1ac <common_get_digit>
}
     29a:	08 95       	ret

0000029c <common_get_fourth_digit>:

unsigned char common_get_fourth_digit(uint32_t number){
	
	return common_get_digit((number % 10000) / 1000);
     29c:	20 e1       	ldi	r18, 0x10	; 16
     29e:	37 e2       	ldi	r19, 0x27	; 39
     2a0:	40 e0       	ldi	r20, 0x00	; 0
     2a2:	50 e0       	ldi	r21, 0x00	; 0
     2a4:	0e 94 fe 09 	call	0x13fc	; 0x13fc <__udivmodsi4>
     2a8:	28 ee       	ldi	r18, 0xE8	; 232
     2aa:	33 e0       	ldi	r19, 0x03	; 3
     2ac:	40 e0       	ldi	r20, 0x00	; 0
     2ae:	50 e0       	ldi	r21, 0x00	; 0
     2b0:	0e 94 fe 09 	call	0x13fc	; 0x13fc <__udivmodsi4>
     2b4:	82 2f       	mov	r24, r18
     2b6:	0e 94 d6 00 	call	0x1ac	; 0x1ac <common_get_digit>
}
     2ba:	08 95       	ret

000002bc <common_get_third_digit>:

unsigned char common_get_third_digit(uint32_t number){
	
	return common_get_digit((number % 1000) / 100);
     2bc:	28 ee       	ldi	r18, 0xE8	; 232
     2be:	33 e0       	ldi	r19, 0x03	; 3
     2c0:	40 e0       	ldi	r20, 0x00	; 0
     2c2:	50 e0       	ldi	r21, 0x00	; 0
     2c4:	0e 94 fe 09 	call	0x13fc	; 0x13fc <__udivmodsi4>
     2c8:	24 e6       	ldi	r18, 0x64	; 100
     2ca:	30 e0       	ldi	r19, 0x00	; 0
     2cc:	40 e0       	ldi	r20, 0x00	; 0
     2ce:	50 e0       	ldi	r21, 0x00	; 0
     2d0:	0e 94 fe 09 	call	0x13fc	; 0x13fc <__udivmodsi4>
     2d4:	82 2f       	mov	r24, r18
     2d6:	0e 94 d6 00 	call	0x1ac	; 0x1ac <common_get_digit>
}
     2da:	08 95       	ret

000002dc <common_get_second_digit>:

unsigned char common_get_second_digit(uint32_t number){
	
	return common_get_digit((number % 100) / 10);
     2dc:	24 e6       	ldi	r18, 0x64	; 100
     2de:	30 e0       	ldi	r19, 0x00	; 0
     2e0:	40 e0       	ldi	r20, 0x00	; 0
     2e2:	50 e0       	ldi	r21, 0x00	; 0
     2e4:	0e 94 fe 09 	call	0x13fc	; 0x13fc <__udivmodsi4>
     2e8:	2a e0       	ldi	r18, 0x0A	; 10
     2ea:	30 e0       	ldi	r19, 0x00	; 0
     2ec:	40 e0       	ldi	r20, 0x00	; 0
     2ee:	50 e0       	ldi	r21, 0x00	; 0
     2f0:	0e 94 fe 09 	call	0x13fc	; 0x13fc <__udivmodsi4>
     2f4:	82 2f       	mov	r24, r18
     2f6:	0e 94 d6 00 	call	0x1ac	; 0x1ac <common_get_digit>
}
     2fa:	08 95       	ret

000002fc <common_get_first_digit>:

unsigned char common_get_first_digit(uint32_t number){
	
	return common_get_digit(number % 10);
     2fc:	2a e0       	ldi	r18, 0x0A	; 10
     2fe:	30 e0       	ldi	r19, 0x00	; 0
     300:	40 e0       	ldi	r20, 0x00	; 0
     302:	50 e0       	ldi	r21, 0x00	; 0
     304:	0e 94 fe 09 	call	0x13fc	; 0x13fc <__udivmodsi4>
     308:	86 2f       	mov	r24, r22
     30a:	0e 94 d6 00 	call	0x1ac	; 0x1ac <common_get_digit>
}
     30e:	08 95       	ret

00000310 <i2c_init>:
	TWCR = (1<<TWINT) | (1<<TWEN);
	while(!(TWCR & (1<<TWINT)));
	
    return TWDR;

}
     310:	11 b8       	out	0x01, r1	; 1
     312:	80 e2       	ldi	r24, 0x20	; 32
     314:	80 b9       	out	0x00, r24	; 0
     316:	08 95       	ret

00000318 <i2c_start_wait>:
     318:	24 ea       	ldi	r18, 0xA4	; 164
     31a:	34 e8       	ldi	r19, 0x84	; 132
     31c:	44 e9       	ldi	r20, 0x94	; 148
     31e:	26 bf       	out	0x36, r18	; 54
     320:	06 b6       	in	r0, 0x36	; 54
     322:	07 fe       	sbrs	r0, 7
     324:	fd cf       	rjmp	.-6      	; 0x320 <i2c_start_wait+0x8>
     326:	91 b1       	in	r25, 0x01	; 1
     328:	98 7f       	andi	r25, 0xF8	; 248
     32a:	98 30       	cpi	r25, 0x08	; 8
     32c:	11 f0       	breq	.+4      	; 0x332 <i2c_start_wait+0x1a>
     32e:	90 31       	cpi	r25, 0x10	; 16
     330:	b1 f7       	brne	.-20     	; 0x31e <i2c_start_wait+0x6>
     332:	83 b9       	out	0x03, r24	; 3
     334:	36 bf       	out	0x36, r19	; 54
     336:	06 b6       	in	r0, 0x36	; 54
     338:	07 fe       	sbrs	r0, 7
     33a:	fd cf       	rjmp	.-6      	; 0x336 <i2c_start_wait+0x1e>
     33c:	91 b1       	in	r25, 0x01	; 1
     33e:	98 7f       	andi	r25, 0xF8	; 248
     340:	90 32       	cpi	r25, 0x20	; 32
     342:	11 f0       	breq	.+4      	; 0x348 <i2c_start_wait+0x30>
     344:	98 35       	cpi	r25, 0x58	; 88
     346:	29 f4       	brne	.+10     	; 0x352 <i2c_start_wait+0x3a>
     348:	46 bf       	out	0x36, r20	; 54
     34a:	06 b6       	in	r0, 0x36	; 54
     34c:	04 fc       	sbrc	r0, 4
     34e:	fd cf       	rjmp	.-6      	; 0x34a <i2c_start_wait+0x32>
     350:	e6 cf       	rjmp	.-52     	; 0x31e <i2c_start_wait+0x6>
     352:	08 95       	ret

00000354 <i2c_stop>:
     354:	84 e9       	ldi	r24, 0x94	; 148
     356:	86 bf       	out	0x36, r24	; 54
     358:	06 b6       	in	r0, 0x36	; 54
     35a:	04 fc       	sbrc	r0, 4
     35c:	fd cf       	rjmp	.-6      	; 0x358 <i2c_stop+0x4>
     35e:	08 95       	ret

00000360 <i2c_write>:
     360:	83 b9       	out	0x03, r24	; 3
     362:	84 e8       	ldi	r24, 0x84	; 132
     364:	86 bf       	out	0x36, r24	; 54
     366:	06 b6       	in	r0, 0x36	; 54
     368:	07 fe       	sbrs	r0, 7
     36a:	fd cf       	rjmp	.-6      	; 0x366 <i2c_write+0x6>
     36c:	91 b1       	in	r25, 0x01	; 1
     36e:	98 7f       	andi	r25, 0xF8	; 248
     370:	81 e0       	ldi	r24, 0x01	; 1
     372:	98 32       	cpi	r25, 0x28	; 40
     374:	09 f4       	brne	.+2      	; 0x378 <i2c_write+0x18>
     376:	80 e0       	ldi	r24, 0x00	; 0
     378:	08 95       	ret

0000037a <i2c_send_packet>:
 koji koristi drugu i2c "biblioteku"
 
 Return:  no return - void
*************************************************************************/
void i2c_send_packet(unsigned char value, unsigned char address)
{
     37a:	cf 93       	push	r28
     37c:	c8 2f       	mov	r28, r24
     37e:	86 2f       	mov	r24, r22
	i2c_send_byte(value);
	i2c_stop_condition();
	*/
	
	
	i2c_start_wait(address+I2C_WRITE);     // set device address and write mode
     380:	0e 94 8c 01 	call	0x318	; 0x318 <i2c_start_wait>
	i2c_write(value);                      // write 
     384:	8c 2f       	mov	r24, r28
     386:	0e 94 b0 01 	call	0x360	; 0x360 <i2c_write>
	i2c_stop();                            // set stop conditon = release bus
     38a:	0e 94 aa 01 	call	0x354	; 0x354 <i2c_stop>
}
     38e:	cf 91       	pop	r28
     390:	08 95       	ret

00000392 <putnibble>:
void LCD_blink_cursor(uint8_t on_off)
{
	if(on_off)
		LCD_send_byte(0b1111,LCD_COMMAND);	//blink on
	else
		LCD_send_byte(0b1100,LCD_COMMAND);	//blink off
     392:	cf 93       	push	r28
     394:	c8 2f       	mov	r28, r24
     396:	80 91 0d 02 	lds	r24, 0x020D	; 0x80020d <led_pin>
     39a:	84 60       	ori	r24, 0x04	; 4
     39c:	80 93 0d 02 	sts	0x020D, r24	; 0x80020d <led_pin>
     3a0:	6e e7       	ldi	r22, 0x7E	; 126
     3a2:	0e 94 bd 01 	call	0x37a	; 0x37a <i2c_send_packet>
     3a6:	85 e8       	ldi	r24, 0x85	; 133
     3a8:	8a 95       	dec	r24
     3aa:	f1 f7       	brne	.-4      	; 0x3a8 <putnibble+0x16>
     3ac:	00 00       	nop
     3ae:	c2 95       	swap	r28
     3b0:	c0 7f       	andi	r28, 0xF0	; 240
     3b2:	80 91 0d 02 	lds	r24, 0x020D	; 0x80020d <led_pin>
     3b6:	6e e7       	ldi	r22, 0x7E	; 126
     3b8:	8c 2b       	or	r24, r28
     3ba:	0e 94 bd 01 	call	0x37a	; 0x37a <i2c_send_packet>
     3be:	80 91 0d 02 	lds	r24, 0x020D	; 0x80020d <led_pin>
     3c2:	8b 7f       	andi	r24, 0xFB	; 251
     3c4:	80 93 0d 02 	sts	0x020D, r24	; 0x80020d <led_pin>
     3c8:	6e e7       	ldi	r22, 0x7E	; 126
     3ca:	0e 94 bd 01 	call	0x37a	; 0x37a <i2c_send_packet>
     3ce:	85 e8       	ldi	r24, 0x85	; 133
     3d0:	8a 95       	dec	r24
     3d2:	f1 f7       	brne	.-4      	; 0x3d0 <putnibble+0x3e>
     3d4:	00 00       	nop
     3d6:	cf 91       	pop	r28
     3d8:	08 95       	ret

000003da <LCD_send_byte>:
     3da:	cf 93       	push	r28
     3dc:	df 93       	push	r29
     3de:	c8 2f       	mov	r28, r24
     3e0:	d8 2f       	mov	r29, r24
     3e2:	d2 95       	swap	r29
     3e4:	df 70       	andi	r29, 0x0F	; 15
     3e6:	61 11       	cpse	r22, r1
     3e8:	09 c0       	rjmp	.+18     	; 0x3fc <LCD_send_byte+0x22>
     3ea:	80 91 0d 02 	lds	r24, 0x020D	; 0x80020d <led_pin>
     3ee:	8e 7f       	andi	r24, 0xFE	; 254
     3f0:	80 93 0d 02 	sts	0x020D, r24	; 0x80020d <led_pin>
     3f4:	6e e7       	ldi	r22, 0x7E	; 126
     3f6:	0e 94 bd 01 	call	0x37a	; 0x37a <i2c_send_packet>
     3fa:	08 c0       	rjmp	.+16     	; 0x40c <__LOCK_REGION_LENGTH__+0xc>
     3fc:	80 91 0d 02 	lds	r24, 0x020D	; 0x80020d <led_pin>
     400:	81 60       	ori	r24, 0x01	; 1
     402:	80 93 0d 02 	sts	0x020D, r24	; 0x80020d <led_pin>
     406:	6e e7       	ldi	r22, 0x7E	; 126
     408:	0e 94 bd 01 	call	0x37a	; 0x37a <i2c_send_packet>
     40c:	8d 2f       	mov	r24, r29
     40e:	0e 94 c9 01 	call	0x392	; 0x392 <putnibble>
     412:	8c 2f       	mov	r24, r28
     414:	0e 94 c9 01 	call	0x392	; 0x392 <putnibble>
     418:	df 91       	pop	r29
     41a:	cf 91       	pop	r28
     41c:	08 95       	ret

0000041e <LCD_send_character>:
     41e:	cf 93       	push	r28
     420:	c8 2f       	mov	r28, r24
     422:	80 91 0d 02 	lds	r24, 0x020D	; 0x80020d <led_pin>
     426:	81 60       	ori	r24, 0x01	; 1
     428:	80 93 0d 02 	sts	0x020D, r24	; 0x80020d <led_pin>
     42c:	6e e7       	ldi	r22, 0x7E	; 126
     42e:	0e 94 bd 01 	call	0x37a	; 0x37a <i2c_send_packet>
     432:	8c 2f       	mov	r24, r28
     434:	82 95       	swap	r24
     436:	8f 70       	andi	r24, 0x0F	; 15
     438:	0e 94 c9 01 	call	0x392	; 0x392 <putnibble>
     43c:	8c 2f       	mov	r24, r28
     43e:	0e 94 c9 01 	call	0x392	; 0x392 <putnibble>
     442:	cf 91       	pop	r28
     444:	08 95       	ret

00000446 <LCD_clear_screen>:
     446:	60 e0       	ldi	r22, 0x00	; 0
     448:	81 e0       	ldi	r24, 0x01	; 1
     44a:	0e 94 ed 01 	call	0x3da	; 0x3da <LCD_send_byte>
     44e:	87 e4       	ldi	r24, 0x47	; 71
     450:	9d e0       	ldi	r25, 0x0D	; 13
     452:	01 97       	sbiw	r24, 0x01	; 1
     454:	f1 f7       	brne	.-4      	; 0x452 <LCD_clear_screen+0xc>
     456:	00 c0       	rjmp	.+0      	; 0x458 <LCD_clear_screen+0x12>
     458:	00 00       	nop
     45a:	08 95       	ret

0000045c <LCD_initialize>:
     45c:	10 92 0d 02 	sts	0x020D, r1	; 0x80020d <led_pin>
     460:	0e 94 88 01 	call	0x310	; 0x310 <i2c_init>
     464:	8f e2       	ldi	r24, 0x2F	; 47
     466:	95 e7       	ldi	r25, 0x75	; 117
     468:	01 97       	sbiw	r24, 0x01	; 1
     46a:	f1 f7       	brne	.-4      	; 0x468 <LCD_initialize+0xc>
     46c:	00 c0       	rjmp	.+0      	; 0x46e <LCD_initialize+0x12>
     46e:	00 00       	nop
     470:	83 e0       	ldi	r24, 0x03	; 3
     472:	0e 94 c9 01 	call	0x392	; 0x392 <putnibble>
     476:	8f e3       	ldi	r24, 0x3F	; 63
     478:	9f e1       	ldi	r25, 0x1F	; 31
     47a:	01 97       	sbiw	r24, 0x01	; 1
     47c:	f1 f7       	brne	.-4      	; 0x47a <LCD_initialize+0x1e>
     47e:	00 c0       	rjmp	.+0      	; 0x480 <LCD_initialize+0x24>
     480:	00 00       	nop
     482:	83 e0       	ldi	r24, 0x03	; 3
     484:	0e 94 c9 01 	call	0x392	; 0x392 <putnibble>
     488:	87 ec       	ldi	r24, 0xC7	; 199
     48a:	90 e0       	ldi	r25, 0x00	; 0
     48c:	01 97       	sbiw	r24, 0x01	; 1
     48e:	f1 f7       	brne	.-4      	; 0x48c <LCD_initialize+0x30>
     490:	00 c0       	rjmp	.+0      	; 0x492 <LCD_initialize+0x36>
     492:	00 00       	nop
     494:	83 e0       	ldi	r24, 0x03	; 3
     496:	0e 94 c9 01 	call	0x392	; 0x392 <putnibble>
     49a:	8f ec       	ldi	r24, 0xCF	; 207
     49c:	97 e0       	ldi	r25, 0x07	; 7
     49e:	01 97       	sbiw	r24, 0x01	; 1
     4a0:	f1 f7       	brne	.-4      	; 0x49e <LCD_initialize+0x42>
     4a2:	00 c0       	rjmp	.+0      	; 0x4a4 <LCD_initialize+0x48>
     4a4:	00 00       	nop
     4a6:	82 e0       	ldi	r24, 0x02	; 2
     4a8:	0e 94 c9 01 	call	0x392	; 0x392 <putnibble>
     4ac:	8f ec       	ldi	r24, 0xCF	; 207
     4ae:	97 e0       	ldi	r25, 0x07	; 7
     4b0:	01 97       	sbiw	r24, 0x01	; 1
     4b2:	f1 f7       	brne	.-4      	; 0x4b0 <LCD_initialize+0x54>
     4b4:	00 c0       	rjmp	.+0      	; 0x4b6 <LCD_initialize+0x5a>
     4b6:	00 00       	nop
     4b8:	60 e0       	ldi	r22, 0x00	; 0
     4ba:	88 e2       	ldi	r24, 0x28	; 40
     4bc:	0e 94 ed 01 	call	0x3da	; 0x3da <LCD_send_byte>
     4c0:	8f ec       	ldi	r24, 0xCF	; 207
     4c2:	97 e0       	ldi	r25, 0x07	; 7
     4c4:	01 97       	sbiw	r24, 0x01	; 1
     4c6:	f1 f7       	brne	.-4      	; 0x4c4 <LCD_initialize+0x68>
     4c8:	00 c0       	rjmp	.+0      	; 0x4ca <LCD_initialize+0x6e>
     4ca:	00 00       	nop
     4cc:	60 e0       	ldi	r22, 0x00	; 0
     4ce:	8c e0       	ldi	r24, 0x0C	; 12
     4d0:	0e 94 ed 01 	call	0x3da	; 0x3da <LCD_send_byte>
     4d4:	8f ec       	ldi	r24, 0xCF	; 207
     4d6:	97 e0       	ldi	r25, 0x07	; 7
     4d8:	01 97       	sbiw	r24, 0x01	; 1
     4da:	f1 f7       	brne	.-4      	; 0x4d8 <LCD_initialize+0x7c>
     4dc:	00 c0       	rjmp	.+0      	; 0x4de <LCD_initialize+0x82>
     4de:	00 00       	nop
     4e0:	60 e0       	ldi	r22, 0x00	; 0
     4e2:	86 e0       	ldi	r24, 0x06	; 6
     4e4:	0e 94 ed 01 	call	0x3da	; 0x3da <LCD_send_byte>
     4e8:	8f ec       	ldi	r24, 0xCF	; 207
     4ea:	97 e0       	ldi	r25, 0x07	; 7
     4ec:	01 97       	sbiw	r24, 0x01	; 1
     4ee:	f1 f7       	brne	.-4      	; 0x4ec <LCD_initialize+0x90>
     4f0:	00 c0       	rjmp	.+0      	; 0x4f2 <LCD_initialize+0x96>
     4f2:	00 00       	nop
     4f4:	80 91 0d 02 	lds	r24, 0x020D	; 0x80020d <led_pin>
     4f8:	88 60       	ori	r24, 0x08	; 8
     4fa:	80 93 0d 02 	sts	0x020D, r24	; 0x80020d <led_pin>
     4fe:	6e e7       	ldi	r22, 0x7E	; 126
     500:	0e 94 bd 01 	call	0x37a	; 0x37a <i2c_send_packet>
     504:	80 91 0d 02 	lds	r24, 0x020D	; 0x80020d <led_pin>
     508:	8d 7f       	andi	r24, 0xFD	; 253
     50a:	80 93 0d 02 	sts	0x020D, r24	; 0x80020d <led_pin>
     50e:	6e e7       	ldi	r22, 0x7E	; 126
     510:	0e 94 bd 01 	call	0x37a	; 0x37a <i2c_send_packet>
     514:	0e 94 23 02 	call	0x446	; 0x446 <LCD_clear_screen>
     518:	08 95       	ret

0000051a <LCD_set_column_and_row>:
     51a:	90 e4       	ldi	r25, 0x40	; 64
     51c:	69 9f       	mul	r22, r25
     51e:	80 0d       	add	r24, r0
     520:	11 24       	eor	r1, r1
     522:	60 e0       	ldi	r22, 0x00	; 0
     524:	80 68       	ori	r24, 0x80	; 128
     526:	0e 94 ed 01 	call	0x3da	; 0x3da <LCD_send_byte>
     52a:	08 95       	ret

0000052c <LCD_print>:
     52c:	0f 93       	push	r16
     52e:	1f 93       	push	r17
     530:	cf 93       	push	r28
     532:	fc 01       	movw	r30, r24
     534:	80 81       	ld	r24, Z
     536:	88 23       	and	r24, r24
     538:	59 f0       	breq	.+22     	; 0x550 <LCD_print+0x24>
     53a:	8f 01       	movw	r16, r30
     53c:	c0 e0       	ldi	r28, 0x00	; 0
     53e:	0e 94 0f 02 	call	0x41e	; 0x41e <LCD_send_character>
     542:	cf 5f       	subi	r28, 0xFF	; 255
     544:	f8 01       	movw	r30, r16
     546:	ec 0f       	add	r30, r28
     548:	f1 1d       	adc	r31, r1
     54a:	80 81       	ld	r24, Z
     54c:	81 11       	cpse	r24, r1
     54e:	f7 cf       	rjmp	.-18     	; 0x53e <LCD_print+0x12>
     550:	cf 91       	pop	r28
     552:	1f 91       	pop	r17
     554:	0f 91       	pop	r16
     556:	08 95       	ret

00000558 <LCD_print_first_row>:
}

void LCD_print_first_row(char* string){
     558:	cf 93       	push	r28
     55a:	df 93       	push	r29
     55c:	ec 01       	movw	r28, r24
	
	LCD_clear_screen();
     55e:	0e 94 23 02 	call	0x446	; 0x446 <LCD_clear_screen>
{
	char adr;

	adr = 0x40*row + col;
	adr |= 0x80;
	LCD_send_byte(adr, LCD_COMMAND);
     562:	60 e0       	ldi	r22, 0x00	; 0
     564:	80 e8       	ldi	r24, 0x80	; 128
     566:	0e 94 ed 01 	call	0x3da	; 0x3da <LCD_send_byte>
void LCD_print_first_row(char* string){
	
	LCD_clear_screen();
	
	LCD_set_column_and_row(0, 0);
	LCD_print(string);
     56a:	ce 01       	movw	r24, r28
     56c:	0e 94 96 02 	call	0x52c	; 0x52c <LCD_print>
}
     570:	df 91       	pop	r29
     572:	cf 91       	pop	r28
     574:	08 95       	ret

00000576 <LCD_print_second_row>:

void LCD_print_second_row(char* string){
     576:	cf 93       	push	r28
     578:	df 93       	push	r29
     57a:	ec 01       	movw	r28, r24
{
	char adr;

	adr = 0x40*row + col;
	adr |= 0x80;
	LCD_send_byte(adr, LCD_COMMAND);
     57c:	60 e0       	ldi	r22, 0x00	; 0
     57e:	80 ec       	ldi	r24, 0xC0	; 192
     580:	0e 94 ed 01 	call	0x3da	; 0x3da <LCD_send_byte>
}

void LCD_print_second_row(char* string){
	
	LCD_set_column_and_row(0, 1);
	LCD_print(string);
     584:	ce 01       	movw	r24, r28
     586:	0e 94 96 02 	call	0x52c	; 0x52c <LCD_print>
}
     58a:	df 91       	pop	r29
     58c:	cf 91       	pop	r28
     58e:	08 95       	ret

00000590 <LCD_print_in_two_rows>:

void LCD_print_in_two_rows(char* first_row_string, char* second_row_string){
     590:	cf 93       	push	r28
     592:	df 93       	push	r29
     594:	eb 01       	movw	r28, r22
	
	LCD_print_first_row(first_row_string);
     596:	0e 94 ac 02 	call	0x558	; 0x558 <LCD_print_first_row>
	LCD_print_second_row(second_row_string);
     59a:	ce 01       	movw	r24, r28
     59c:	0e 94 bb 02 	call	0x576	; 0x576 <LCD_print_second_row>
}
     5a0:	df 91       	pop	r29
     5a2:	cf 91       	pop	r28
     5a4:	08 95       	ret

000005a6 <main>:
#include "state_machine.h"
#include <avr/interrupt.h>

int main(void){
	
    sei();
     5a6:	78 94       	sei
	
	RGB_LED_initialize();
     5a8:	0e 94 2b 03 	call	0x656	; 0x656 <RGB_LED_initialize>
    LCD_initialize();
     5ac:	0e 94 2e 02 	call	0x45c	; 0x45c <LCD_initialize>
    ports_initialize();
     5b0:	0e 94 ed 02 	call	0x5da	; 0x5da <ports_initialize>
    timer_0_initialize();
     5b4:	0e 94 5f 06 	call	0xcbe	; 0xcbe <timer_0_initialize>
    PWM_2_initialize();
     5b8:	0e 94 0a 03 	call	0x614	; 0x614 <PWM_2_initialize>
	USART_initialize();
     5bc:	0e 94 ad 06 	call	0xd5a	; 0xd5a <USART_initialize>
	buttons_and_switches_initialize();
     5c0:	0e 94 52 00 	call	0xa4	; 0xa4 <buttons_and_switches_initialize>
	buzzer_initialize();
     5c4:	0e 94 79 00 	call	0xf2	; 0xf2 <buzzer_initialize>
	state_machine_initialize();
     5c8:	0e 94 c7 03 	call	0x78e	; 0x78e <state_machine_initialize>

	USART_print_line("APLIKACIJA JE ZAPOCETA <3");
     5cc:	8f e6       	ldi	r24, 0x6F	; 111
     5ce:	90 e0       	ldi	r25, 0x00	; 0
     5d0:	0e 94 ef 06 	call	0xdde	; 0xdde <USART_print_line>
	
    while (INFINITE_LOOP){
		
		state_machine_routine();
     5d4:	0e 94 fc 05 	call	0xbf8	; 0xbf8 <state_machine_routine>
     5d8:	fd cf       	rjmp	.-6      	; 0x5d4 <main+0x2e>

000005da <ports_initialize>:
	return port_state;
}

void ports_set_OC1A_pin_direction_to_output(void){
	
	ports_set_PINxn_of_PORTD_direction_to_output(D5);
     5da:	8f e7       	ldi	r24, 0x7F	; 127
     5dc:	8a bb       	out	0x1a, r24	; 26
     5de:	80 e8       	ldi	r24, 0x80	; 128
     5e0:	8b bb       	out	0x1b, r24	; 27
     5e2:	17 ba       	out	0x17, r1	; 23
     5e4:	8f ef       	ldi	r24, 0xFF	; 255
     5e6:	88 bb       	out	0x18, r24	; 24
     5e8:	84 bb       	out	0x14, r24	; 20
     5ea:	15 ba       	out	0x15, r1	; 21
     5ec:	82 eb       	ldi	r24, 0xB2	; 178
     5ee:	81 bb       	out	0x11, r24	; 17
     5f0:	8c e4       	ldi	r24, 0x4C	; 76
     5f2:	82 bb       	out	0x12, r24	; 18
     5f4:	08 95       	ret

000005f6 <ports_set_PINxn_of_PORTD_direction_to_output>:
     5f6:	91 b3       	in	r25, 0x11	; 17
     5f8:	21 e0       	ldi	r18, 0x01	; 1
     5fa:	30 e0       	ldi	r19, 0x00	; 0
     5fc:	02 c0       	rjmp	.+4      	; 0x602 <ports_set_PINxn_of_PORTD_direction_to_output+0xc>
     5fe:	22 0f       	add	r18, r18
     600:	33 1f       	adc	r19, r19
     602:	8a 95       	dec	r24
     604:	e2 f7       	brpl	.-8      	; 0x5fe <ports_set_PINxn_of_PORTD_direction_to_output+0x8>
     606:	29 2b       	or	r18, r25
     608:	21 bb       	out	0x11, r18	; 17
     60a:	08 95       	ret

0000060c <ports_set_OC2_pin_direction_to_output>:
}

void ports_set_OC2_pin_direction_to_output(void){
	
	ports_set_PINxn_of_PORTD_direction_to_output(D7);
     60c:	87 e0       	ldi	r24, 0x07	; 7
     60e:	0e 94 fb 02 	call	0x5f6	; 0x5f6 <ports_set_PINxn_of_PORTD_direction_to_output>
     612:	08 95       	ret

00000614 <PWM_2_initialize>:
#include "PWM_2.h"
#include "buzzer.h"

void PWM_2_initialize(void){
	
	ports_set_OC2_pin_direction_to_output();
     614:	0e 94 06 03 	call	0x60c	; 0x60c <ports_set_OC2_pin_direction_to_output>
	TCCR2 = TCCR2_INITIAL_STATE;
     618:	8a e4       	ldi	r24, 0x4A	; 74
     61a:	85 bd       	out	0x25, r24	; 37
     61c:	08 95       	ret

0000061e <PWM_2_enable_non_inverted_wave_form>:
}

void PWM_2_enable_non_inverted_wave_form(void){

	TCCR2 = (TCCR2 & (~(1 << COM20))) | (1 << COM21);
     61e:	85 b5       	in	r24, 0x25	; 37
     620:	8f 7c       	andi	r24, 0xCF	; 207
     622:	80 62       	ori	r24, 0x20	; 32
     624:	85 bd       	out	0x25, r24	; 37
     626:	08 95       	ret

00000628 <PWM_2_disable>:
}

void PWM_2_disable(void){
	
	TCCR2 &= ~((1 << COM20) | (1 << COM21));
     628:	85 b5       	in	r24, 0x25	; 37
     62a:	8f 7c       	andi	r24, 0xCF	; 207
     62c:	85 bd       	out	0x25, r24	; 37
	RESET_BIT(PORTD, D7);
     62e:	97 98       	cbi	0x12, 7	; 18
     630:	08 95       	ret

00000632 <PWM_2_set_duty_cycle_percentage>:
}

void PWM_2_set_duty_cycle_percentage(float percantage){
	
	OCR2 = (uint8_t)(round(percantage * 255.0f / 100.0f));
     632:	20 e0       	ldi	r18, 0x00	; 0
     634:	30 e0       	ldi	r19, 0x00	; 0
     636:	4f e7       	ldi	r20, 0x7F	; 127
     638:	53 e4       	ldi	r21, 0x43	; 67
     63a:	0e 94 30 09 	call	0x1260	; 0x1260 <__mulsf3>
     63e:	20 e0       	ldi	r18, 0x00	; 0
     640:	30 e0       	ldi	r19, 0x00	; 0
     642:	48 ec       	ldi	r20, 0xC8	; 200
     644:	52 e4       	ldi	r21, 0x42	; 66
     646:	0e 94 01 08 	call	0x1002	; 0x1002 <__divsf3>
     64a:	0e 94 9d 09 	call	0x133a	; 0x133a <round>
     64e:	0e 94 73 08 	call	0x10e6	; 0x10e6 <__fixunssfsi>
     652:	63 bd       	out	0x23, r22	; 35
     654:	08 95       	ret

00000656 <RGB_LED_initialize>:
#include "USART.h"
#include <util/delay.h>
#include "RGB_LED.h"

void RGB_LED_initialize(void){
     656:	08 95       	ret

00000658 <RGB_LED_send_logic_zero>:
	//RGB_LED_set_pink();
}

void RGB_LED_send_logic_zero(void){

	SET_BIT(RGB_LED_PORT, RGB_LED_PIN);
     658:	de 9a       	sbi	0x1b, 6	; 27
	#else
		//round up by default
		__ticks_dc = (uint32_t)(ceil(fabs(__tmp)));
	#endif

	__builtin_avr_delay_cycles(__ticks_dc);
     65a:	00 c0       	rjmp	.+0      	; 0x65c <RGB_LED_send_logic_zero+0x4>
     65c:	00 00       	nop
	_delay_us(T0H);

	RESET_BIT(RGB_LED_PORT, RGB_LED_PIN);
     65e:	de 98       	cbi	0x1b, 6	; 27
     660:	83 e0       	ldi	r24, 0x03	; 3
     662:	8a 95       	dec	r24
     664:	f1 f7       	brne	.-4      	; 0x662 <RGB_LED_send_logic_zero+0xa>
     666:	00 c0       	rjmp	.+0      	; 0x668 <RGB_LED_send_logic_zero+0x10>
     668:	08 95       	ret

0000066a <RGB_LED_send_logic_one>:
	_delay_us(T0L);
}

void RGB_LED_send_logic_one(void){

	SET_BIT(RGB_LED_PORT, RGB_LED_PIN);
     66a:	de 9a       	sbi	0x1b, 6	; 27
     66c:	83 e0       	ldi	r24, 0x03	; 3
     66e:	8a 95       	dec	r24
     670:	f1 f7       	brne	.-4      	; 0x66e <RGB_LED_send_logic_one+0x4>
     672:	00 c0       	rjmp	.+0      	; 0x674 <RGB_LED_send_logic_one+0xa>
	_delay_us(T1H);

	RESET_BIT(RGB_LED_PORT, RGB_LED_PIN);
     674:	de 98       	cbi	0x1b, 6	; 27
     676:	00 c0       	rjmp	.+0      	; 0x678 <RGB_LED_send_logic_one+0xe>
     678:	00 00       	nop
     67a:	08 95       	ret

0000067c <RGB_LED_send_byte>:
	_delay_us(T1L);
}

void  RGB_LED_send_byte(uint8_t byte){
     67c:	1f 93       	push	r17
     67e:	cf 93       	push	r28
     680:	df 93       	push	r29
     682:	18 2f       	mov	r17, r24
     684:	c8 e0       	ldi	r28, 0x08	; 8
	
	uint8_t digit_position = 0b10000000;
     686:	d0 e8       	ldi	r29, 0x80	; 128

	for(uint8_t number_of_digits = 0; number_of_digits < 8; number_of_digits++){

		if (byte & digit_position)RGB_LED_send_logic_one();
     688:	81 2f       	mov	r24, r17
     68a:	8d 23       	and	r24, r29
     68c:	19 f0       	breq	.+6      	; 0x694 <RGB_LED_send_byte+0x18>
     68e:	0e 94 35 03 	call	0x66a	; 0x66a <RGB_LED_send_logic_one>
     692:	02 c0       	rjmp	.+4      	; 0x698 <RGB_LED_send_byte+0x1c>
		
		else RGB_LED_send_logic_zero();
     694:	0e 94 2c 03 	call	0x658	; 0x658 <RGB_LED_send_logic_zero>
		
		digit_position >>= 1;
     698:	d6 95       	lsr	r29
     69a:	c1 50       	subi	r28, 0x01	; 1

void  RGB_LED_send_byte(uint8_t byte){
	
	uint8_t digit_position = 0b10000000;

	for(uint8_t number_of_digits = 0; number_of_digits < 8; number_of_digits++){
     69c:	a9 f7       	brne	.-22     	; 0x688 <RGB_LED_send_byte+0xc>
		
		else RGB_LED_send_logic_zero();
		
		digit_position >>= 1;
	}
}
     69e:	df 91       	pop	r29
     6a0:	cf 91       	pop	r28
     6a2:	1f 91       	pop	r17
     6a4:	08 95       	ret

000006a6 <RGB_LED_send_reset>:

void RGB_LED_send_reset(void){

	RESET_BIT(RGB_LED_PORT, RGB_LED_PIN);
     6a6:	de 98       	cbi	0x1b, 6	; 27
     6a8:	85 e8       	ldi	r24, 0x85	; 133
     6aa:	8a 95       	dec	r24
     6ac:	f1 f7       	brne	.-4      	; 0x6aa <RGB_LED_send_reset+0x4>
     6ae:	00 00       	nop
     6b0:	08 95       	ret

000006b2 <RGB_LED_set_color>:
	_delay_us(RESET_TIME);
}

void RGB_LED_set_color(uint8_t red, uint8_t green, uint8_t blue){
     6b2:	0f 93       	push	r16
     6b4:	1f 93       	push	r17
     6b6:	cf 93       	push	r28
     6b8:	df 93       	push	r29
     6ba:	08 2f       	mov	r16, r24
     6bc:	16 2f       	mov	r17, r22
     6be:	d4 2f       	mov	r29, r20
     6c0:	c6 e0       	ldi	r28, 0x06	; 6
	
	for(uint8_t number_of_attempts = 0; number_of_attempts < NUMBER_OF_ATTEMPTS; number_of_attempts++){
		
		RGB_LED_send_byte(red);
     6c2:	80 2f       	mov	r24, r16
     6c4:	0e 94 3e 03 	call	0x67c	; 0x67c <RGB_LED_send_byte>
		RGB_LED_send_byte(green);
     6c8:	81 2f       	mov	r24, r17
     6ca:	0e 94 3e 03 	call	0x67c	; 0x67c <RGB_LED_send_byte>
		RGB_LED_send_byte(blue);
     6ce:	8d 2f       	mov	r24, r29
     6d0:	0e 94 3e 03 	call	0x67c	; 0x67c <RGB_LED_send_byte>
		RGB_LED_send_reset();
     6d4:	0e 94 53 03 	call	0x6a6	; 0x6a6 <RGB_LED_send_reset>
     6d8:	c1 50       	subi	r28, 0x01	; 1
	_delay_us(RESET_TIME);
}

void RGB_LED_set_color(uint8_t red, uint8_t green, uint8_t blue){
	
	for(uint8_t number_of_attempts = 0; number_of_attempts < NUMBER_OF_ATTEMPTS; number_of_attempts++){
     6da:	99 f7       	brne	.-26     	; 0x6c2 <RGB_LED_set_color+0x10>
		RGB_LED_send_byte(red);
		RGB_LED_send_byte(green);
		RGB_LED_send_byte(blue);
		RGB_LED_send_reset();
	}
}
     6dc:	df 91       	pop	r29
     6de:	cf 91       	pop	r28
     6e0:	1f 91       	pop	r17
     6e2:	0f 91       	pop	r16
     6e4:	08 95       	ret

000006e6 <RGB_LED_set_light_blue>:

void RGB_LED_set_light_blue(void){
	
	RGB_LED_set_color(DONT_SHINE, SHINE, SHINE);
     6e6:	4f ef       	ldi	r20, 0xFF	; 255
     6e8:	6f ef       	ldi	r22, 0xFF	; 255
     6ea:	80 e0       	ldi	r24, 0x00	; 0
     6ec:	0e 94 59 03 	call	0x6b2	; 0x6b2 <RGB_LED_set_color>
     6f0:	08 95       	ret

000006f2 <RGB_LED_set_dark_blue>:
}

void RGB_LED_set_dark_blue(void){

	RGB_LED_set_color(DONT_SHINE, DONT_SHINE, SHINE);
     6f2:	4f ef       	ldi	r20, 0xFF	; 255
     6f4:	60 e0       	ldi	r22, 0x00	; 0
     6f6:	80 e0       	ldi	r24, 0x00	; 0
     6f8:	0e 94 59 03 	call	0x6b2	; 0x6b2 <RGB_LED_set_color>
     6fc:	08 95       	ret

000006fe <RGB_LED_set_green>:
}

void RGB_LED_set_green(void){

	RGB_LED_set_color(DONT_SHINE, SHINE, DONT_SHINE);
     6fe:	40 e0       	ldi	r20, 0x00	; 0
     700:	6f ef       	ldi	r22, 0xFF	; 255
     702:	80 e0       	ldi	r24, 0x00	; 0
     704:	0e 94 59 03 	call	0x6b2	; 0x6b2 <RGB_LED_set_color>
     708:	08 95       	ret

0000070a <RGB_LED_set_yellow>:
}

void RGB_LED_set_yellow(void){

	RGB_LED_set_color(SHINE, SHINE, DONT_SHINE);
     70a:	40 e0       	ldi	r20, 0x00	; 0
     70c:	6f ef       	ldi	r22, 0xFF	; 255
     70e:	8f ef       	ldi	r24, 0xFF	; 255
     710:	0e 94 59 03 	call	0x6b2	; 0x6b2 <RGB_LED_set_color>
     714:	08 95       	ret

00000716 <RGB_LED_set_pink>:
}

void RGB_LED_set_pink(void){

	RGB_LED_set_color(SHINE, DONT_SHINE, SHINE);
     716:	4f ef       	ldi	r20, 0xFF	; 255
     718:	60 e0       	ldi	r22, 0x00	; 0
     71a:	8f ef       	ldi	r24, 0xFF	; 255
     71c:	0e 94 59 03 	call	0x6b2	; 0x6b2 <RGB_LED_set_color>
     720:	08 95       	ret

00000722 <RGB_LED_set_red>:
}

void RGB_LED_set_red(void){

	RGB_LED_set_color(SHINE, DONT_SHINE, DONT_SHINE);
     722:	40 e0       	ldi	r20, 0x00	; 0
     724:	60 e0       	ldi	r22, 0x00	; 0
     726:	8f ef       	ldi	r24, 0xFF	; 255
     728:	0e 94 59 03 	call	0x6b2	; 0x6b2 <RGB_LED_set_color>
     72c:	08 95       	ret

0000072e <RGB_LED_set_white>:
}

void RGB_LED_set_white(void){
	
	RGB_LED_set_color(SHINE, SHINE, SHINE);
     72e:	4f ef       	ldi	r20, 0xFF	; 255
     730:	6f ef       	ldi	r22, 0xFF	; 255
     732:	8f ef       	ldi	r24, 0xFF	; 255
     734:	0e 94 59 03 	call	0x6b2	; 0x6b2 <RGB_LED_set_color>
     738:	08 95       	ret

0000073a <state_machine_get_event>:
	USART_empty_the_RX_buffer();
}

uint8_t state_machine_get_event(void){
	
	if(USART_character_is_received())return CHOICE_IS_BEING_RECEIVED;
     73a:	0e 94 f1 07 	call	0xfe2	; 0xfe2 <USART_character_is_received>
     73e:	81 11       	cpse	r24, r1
     740:	0d c0       	rjmp	.+26     	; 0x75c <state_machine_get_event+0x22>
	
	else if(buttons_and_switches_start_button_is_pushed() && choice_counter > 1)return START; //mora biti bar dva izbora
     742:	0e 94 5d 00 	call	0xba	; 0xba <buttons_and_switches_start_button_is_pushed>
     746:	88 23       	and	r24, r24
     748:	21 f0       	breq	.+8      	; 0x752 <state_machine_get_event+0x18>
     74a:	80 91 f4 01 	lds	r24, 0x01F4	; 0x8001f4 <__data_end>
     74e:	82 30       	cpi	r24, 0x02	; 2
     750:	38 f4       	brcc	.+14     	; 0x760 <state_machine_get_event+0x26>
	
	else if(buttons_and_switches_start_button_is_pushed())return ERROR;
     752:	0e 94 5d 00 	call	0xba	; 0xba <buttons_and_switches_start_button_is_pushed>
     756:	81 11       	cpse	r24, r1
     758:	05 c0       	rjmp	.+10     	; 0x764 <state_machine_get_event+0x2a>
     75a:	08 95       	ret
	USART_empty_the_RX_buffer();
}

uint8_t state_machine_get_event(void){
	
	if(USART_character_is_received())return CHOICE_IS_BEING_RECEIVED;
     75c:	81 e0       	ldi	r24, 0x01	; 1
     75e:	08 95       	ret
	
	else if(buttons_and_switches_start_button_is_pushed() && choice_counter > 1)return START; //mora biti bar dva izbora
     760:	82 e0       	ldi	r24, 0x02	; 2
     762:	08 95       	ret
	
	else if(buttons_and_switches_start_button_is_pushed())return ERROR;
     764:	83 e0       	ldi	r24, 0x03	; 3
	
	else return NOTHING_IS_HAPPENING;
}
     766:	08 95       	ret

00000768 <state_machine_print_waiting_state>:

void state_machine_print_waiting_state(void){
	
	LCD_print_first_row(" Unesi svoj ");
     768:	89 e8       	ldi	r24, 0x89	; 137
     76a:	90 e0       	ldi	r25, 0x00	; 0
     76c:	0e 94 ac 02 	call	0x558	; 0x558 <LCD_print_first_row>
	char character = common_get_digit(choice_counter + 1);
     770:	80 91 f4 01 	lds	r24, 0x01F4	; 0x8001f4 <__data_end>
     774:	8f 5f       	subi	r24, 0xFF	; 255
     776:	0e 94 d6 00 	call	0x1ac	; 0x1ac <common_get_digit>
	LCD_send_character(character);
     77a:	0e 94 0f 02 	call	0x41e	; 0x41e <LCD_send_character>
	LCD_send_character('.');
     77e:	8e e2       	ldi	r24, 0x2E	; 46
     780:	0e 94 0f 02 	call	0x41e	; 0x41e <LCD_send_character>
	LCD_print_second_row("     izbor:     ");
     784:	86 e9       	ldi	r24, 0x96	; 150
     786:	90 e0       	ldi	r25, 0x00	; 0
     788:	0e 94 bb 02 	call	0x576	; 0x576 <LCD_print_second_row>
     78c:	08 95       	ret

0000078e <state_machine_initialize>:
volatile uint8_t choice_counter = 0;
char/***/ choice[MAXIMUM_NUMBER_OF_CHOICES][MAXIMUM_NUMBER_OF_CHARACTERS];

void state_machine_initialize(void){

	RGB_LED_set_pink();
     78e:	0e 94 8b 03 	call	0x716	; 0x716 <RGB_LED_set_pink>
	
	LCD_print_first_row(" PA CAAAO MACO! ");
     792:	87 ea       	ldi	r24, 0xA7	; 167
     794:	90 e0       	ldi	r25, 0x00	; 0
     796:	0e 94 ac 02 	call	0x558	; 0x558 <LCD_print_first_row>
	#else
		//round up by default
		__ticks_dc = (uint32_t)(ceil(fabs(__tmp)));
	#endif

	__builtin_avr_delay_cycles(__ticks_dc);
     79a:	2f ef       	ldi	r18, 0xFF	; 255
     79c:	8e ea       	ldi	r24, 0xAE	; 174
     79e:	9b e4       	ldi	r25, 0x4B	; 75
     7a0:	21 50       	subi	r18, 0x01	; 1
     7a2:	80 40       	sbci	r24, 0x00	; 0
     7a4:	90 40       	sbci	r25, 0x00	; 0
     7a6:	e1 f7       	brne	.-8      	; 0x7a0 <state_machine_initialize+0x12>
     7a8:	00 c0       	rjmp	.+0      	; 0x7aa <state_machine_initialize+0x1c>
     7aa:	00 00       	nop
	_delay_ms(3100);
	state_machine_print_waiting_state();
     7ac:	0e 94 b4 03 	call	0x768	; 0x768 <state_machine_print_waiting_state>
	
	event = NOTHING_IS_HAPPENING;
     7b0:	10 92 f6 01 	sts	0x01F6, r1	; 0x8001f6 <event>
	state = WAITING;
     7b4:	10 92 f5 01 	sts	0x01F5, r1	; 0x8001f5 <state>
	
	RGB_LED_set_green();
     7b8:	0e 94 7f 03 	call	0x6fe	; 0x6fe <RGB_LED_set_green>
	
	buzzer_activate_interaction_tone();
     7bc:	0e 94 9d 00 	call	0x13a	; 0x13a <buzzer_activate_interaction_tone>
	
	USART_empty_the_RX_buffer();
     7c0:	0e 94 f6 07 	call	0xfec	; 0xfec <USART_empty_the_RX_buffer>
     7c4:	08 95       	ret

000007c6 <state_machine_update_choice_matrix>:
	LCD_send_character(character);
	LCD_send_character('.');
	LCD_print_second_row("     izbor:     ");
}

void state_machine_update_choice_matrix(void){
     7c6:	cf 93       	push	r28
     7c8:	df 93       	push	r29

	RGB_LED_set_red();
     7ca:	0e 94 91 03 	call	0x722	; 0x722 <RGB_LED_set_red>
	
	char* string = USART_get_string();
     7ce:	0e 94 b8 06 	call	0xd70	; 0xd70 <USART_get_string>
     7d2:	ec 01       	movw	r28, r24
	#else
		//round up by default
		__ticks_dc = (uint32_t)(ceil(fabs(__tmp)));
	#endif

	__builtin_avr_delay_cycles(__ticks_dc);
     7d4:	87 e4       	ldi	r24, 0x47	; 71
     7d6:	9d e0       	ldi	r25, 0x0D	; 13
     7d8:	01 97       	sbiw	r24, 0x01	; 1
     7da:	f1 f7       	brne	.-4      	; 0x7d8 <state_machine_update_choice_matrix+0x12>
     7dc:	00 c0       	rjmp	.+0      	; 0x7de <state_machine_update_choice_matrix+0x18>
     7de:	00 00       	nop
	_delay_us(1700);					//ubaguje se displej ako se ne stavi delay
	UDR;								//to empty the UDR buffer. character 10 seems to make problem
     7e0:	8c b1       	in	r24, 0x0c	; 12
	
	if(choice_counter < MAXIMUM_NUMBER_OF_CHOICES){
     7e2:	80 91 f4 01 	lds	r24, 0x01F4	; 0x8001f4 <__data_end>
     7e6:	88 30       	cpi	r24, 0x08	; 8
     7e8:	08 f0       	brcs	.+2      	; 0x7ec <state_machine_update_choice_matrix+0x26>
     7ea:	56 c0       	rjmp	.+172    	; 0x898 <__stack+0x39>
		
		if(strlen(string) > MAXIMUM_NUMBER_OF_CHARACTERS){
     7ec:	fe 01       	movw	r30, r28
     7ee:	01 90       	ld	r0, Z+
     7f0:	00 20       	and	r0, r0
     7f2:	e9 f7       	brne	.-6      	; 0x7ee <state_machine_update_choice_matrix+0x28>
     7f4:	31 97       	sbiw	r30, 0x01	; 1
     7f6:	ec 1b       	sub	r30, r28
     7f8:	fd 0b       	sbc	r31, r29
     7fa:	71 97       	sbiw	r30, 0x11	; 17
     7fc:	f8 f0       	brcs	.+62     	; 0x83c <state_machine_update_choice_matrix+0x76>
			
			LCD_print_in_two_rows("Prekoracila si", "opseg karaktera");
     7fe:	68 eb       	ldi	r22, 0xB8	; 184
     800:	70 e0       	ldi	r23, 0x00	; 0
     802:	88 ec       	ldi	r24, 0xC8	; 200
     804:	90 e0       	ldi	r25, 0x00	; 0
     806:	0e 94 c8 02 	call	0x590	; 0x590 <LCD_print_in_two_rows>
	#else
		//round up by default
		__ticks_dc = (uint32_t)(ceil(fabs(__tmp)));
	#endif

	__builtin_avr_delay_cycles(__ticks_dc);
     80a:	9f ef       	ldi	r25, 0xFF	; 255
     80c:	2d e3       	ldi	r18, 0x3D	; 61
     80e:	89 e4       	ldi	r24, 0x49	; 73
     810:	91 50       	subi	r25, 0x01	; 1
     812:	20 40       	sbci	r18, 0x00	; 0
     814:	80 40       	sbci	r24, 0x00	; 0
     816:	e1 f7       	brne	.-8      	; 0x810 <state_machine_update_choice_matrix+0x4a>
     818:	00 c0       	rjmp	.+0      	; 0x81a <state_machine_update_choice_matrix+0x54>
     81a:	00 00       	nop
			
			_delay_ms(3000);	
			
			if(choice_counter == MAXIMUM_NUMBER_OF_CHOICES){
     81c:	80 91 f4 01 	lds	r24, 0x01F4	; 0x8001f4 <__data_end>
     820:	88 30       	cpi	r24, 0x08	; 8
     822:	49 f4       	brne	.+18     	; 0x836 <state_machine_update_choice_matrix+0x70>
				
				RGB_LED_set_red();
     824:	0e 94 91 03 	call	0x722	; 0x722 <RGB_LED_set_red>
				LCD_print_in_two_rows("Unela si maximum", " broj izbora :) ");
     828:	67 ed       	ldi	r22, 0xD7	; 215
     82a:	70 e0       	ldi	r23, 0x00	; 0
     82c:	88 ee       	ldi	r24, 0xE8	; 232
     82e:	90 e0       	ldi	r25, 0x00	; 0
     830:	0e 94 c8 02 	call	0x590	; 0x590 <LCD_print_in_two_rows>
     834:	46 c0       	rjmp	.+140    	; 0x8c2 <__stack+0x63>
			}
			
			else state_machine_print_waiting_state();		
     836:	0e 94 b4 03 	call	0x768	; 0x768 <state_machine_print_waiting_state>
     83a:	43 c0       	rjmp	.+134    	; 0x8c2 <__stack+0x63>
		}
		
		else{
			
			strcpy(choice[choice_counter], string);
     83c:	80 91 f4 01 	lds	r24, 0x01F4	; 0x8001f4 <__data_end>
     840:	20 e1       	ldi	r18, 0x10	; 16
     842:	82 9f       	mul	r24, r18
     844:	c0 01       	movw	r24, r0
     846:	11 24       	eor	r1, r1
     848:	be 01       	movw	r22, r28
     84a:	82 5f       	subi	r24, 0xF2	; 242
     84c:	9d 4f       	sbci	r25, 0xFD	; 253
     84e:	0e 94 96 0a 	call	0x152c	; 0x152c <strcpy>
			choice_counter++;
     852:	80 91 f4 01 	lds	r24, 0x01F4	; 0x8001f4 <__data_end>
     856:	8f 5f       	subi	r24, 0xFF	; 255
     858:	80 93 f4 01 	sts	0x01F4, r24	; 0x8001f4 <__data_end>
			
			USART_print_number(choice_counter);
     85c:	60 91 f4 01 	lds	r22, 0x01F4	; 0x8001f4 <__data_end>
     860:	70 e0       	ldi	r23, 0x00	; 0
     862:	80 e0       	ldi	r24, 0x00	; 0
     864:	90 e0       	ldi	r25, 0x00	; 0
     866:	0e 94 f5 06 	call	0xdea	; 0xdea <USART_print_number>
			USART_print(". ");
     86a:	89 ef       	ldi	r24, 0xF9	; 249
     86c:	90 e0       	ldi	r25, 0x00	; 0
     86e:	0e 94 d9 06 	call	0xdb2	; 0xdb2 <USART_print>
			USART_print_line(string);
     872:	ce 01       	movw	r24, r28
     874:	0e 94 ef 06 	call	0xdde	; 0xdde <USART_print_line>
		
			if(choice_counter == MAXIMUM_NUMBER_OF_CHOICES){
     878:	80 91 f4 01 	lds	r24, 0x01F4	; 0x8001f4 <__data_end>
     87c:	88 30       	cpi	r24, 0x08	; 8
     87e:	49 f4       	brne	.+18     	; 0x892 <__stack+0x33>
				
				RGB_LED_set_red();
     880:	0e 94 91 03 	call	0x722	; 0x722 <RGB_LED_set_red>
				LCD_print_in_two_rows("Unela si maximum", " broj izbora :) ");
     884:	67 ed       	ldi	r22, 0xD7	; 215
     886:	70 e0       	ldi	r23, 0x00	; 0
     888:	88 ee       	ldi	r24, 0xE8	; 232
     88a:	90 e0       	ldi	r25, 0x00	; 0
     88c:	0e 94 c8 02 	call	0x590	; 0x590 <LCD_print_in_two_rows>
     890:	18 c0       	rjmp	.+48     	; 0x8c2 <__stack+0x63>
			}
		
			else state_machine_print_waiting_state();
     892:	0e 94 b4 03 	call	0x768	; 0x768 <state_machine_print_waiting_state>
     896:	15 c0       	rjmp	.+42     	; 0x8c2 <__stack+0x63>
		
	}
	
	else {
		
		LCD_print_in_two_rows("   STOP IT! ", "   IT HURTS!  ");
     898:	6c ef       	ldi	r22, 0xFC	; 252
     89a:	70 e0       	ldi	r23, 0x00	; 0
     89c:	8b e0       	ldi	r24, 0x0B	; 11
     89e:	91 e0       	ldi	r25, 0x01	; 1
     8a0:	0e 94 c8 02 	call	0x590	; 0x590 <LCD_print_in_two_rows>
     8a4:	8f ef       	ldi	r24, 0xFF	; 255
     8a6:	9d e3       	ldi	r25, 0x3D	; 61
     8a8:	29 e4       	ldi	r18, 0x49	; 73
     8aa:	81 50       	subi	r24, 0x01	; 1
     8ac:	90 40       	sbci	r25, 0x00	; 0
     8ae:	20 40       	sbci	r18, 0x00	; 0
     8b0:	e1 f7       	brne	.-8      	; 0x8aa <__stack+0x4b>
     8b2:	00 c0       	rjmp	.+0      	; 0x8b4 <__stack+0x55>
     8b4:	00 00       	nop
	
		_delay_ms(3000);
	
		LCD_print_in_two_rows("PRITISNI TASTER", "  BEZ EMOCIJE!  ");	
     8b6:	68 e1       	ldi	r22, 0x18	; 24
     8b8:	71 e0       	ldi	r23, 0x01	; 1
     8ba:	89 e2       	ldi	r24, 0x29	; 41
     8bc:	91 e0       	ldi	r25, 0x01	; 1
     8be:	0e 94 c8 02 	call	0x590	; 0x590 <LCD_print_in_two_rows>
	}
	
	buzzer_activate_interaction_tone();
     8c2:	0e 94 9d 00 	call	0x13a	; 0x13a <buzzer_activate_interaction_tone>
	RGB_LED_set_green();
     8c6:	0e 94 7f 03 	call	0x6fe	; 0x6fe <RGB_LED_set_green>
	
	USART_empty_the_RX_buffer();
     8ca:	0e 94 f6 07 	call	0xfec	; 0xfec <USART_empty_the_RX_buffer>
}
     8ce:	df 91       	pop	r29
     8d0:	cf 91       	pop	r28
     8d2:	08 95       	ret

000008d4 <state_machine_start>:

void state_machine_start(void){
	
	state = BINGOING_CHOICE;
     8d4:	81 e0       	ldi	r24, 0x01	; 1
     8d6:	80 93 f5 01 	sts	0x01F5, r24	; 0x8001f5 <state>
	
	RGB_LED_set_dark_blue();
     8da:	0e 94 79 03 	call	0x6f2	; 0x6f2 <RGB_LED_set_dark_blue>
	
	LCD_print_in_two_rows(" Otpusti taster ", "i sacekaj odluku");
     8de:	69 e3       	ldi	r22, 0x39	; 57
     8e0:	71 e0       	ldi	r23, 0x01	; 1
     8e2:	8a e4       	ldi	r24, 0x4A	; 74
     8e4:	91 e0       	ldi	r25, 0x01	; 1
     8e6:	0e 94 c8 02 	call	0x590	; 0x590 <LCD_print_in_two_rows>
	
	buzzer_activate_button_has_been_pushed_tone();
     8ea:	0e 94 95 00 	call	0x12a	; 0x12a <buzzer_activate_button_has_been_pushed_tone>
	while(buttons_and_switches_start_button_is_pushed());
     8ee:	0e 94 5d 00 	call	0xba	; 0xba <buttons_and_switches_start_button_is_pushed>
     8f2:	81 11       	cpse	r24, r1
     8f4:	fc cf       	rjmp	.-8      	; 0x8ee <state_machine_start+0x1a>
}
     8f6:	08 95       	ret

000008f8 <state_machine_bingo_choice>:

void state_machine_bingo_choice(void){
     8f8:	8f 92       	push	r8
     8fa:	9f 92       	push	r9
     8fc:	af 92       	push	r10
     8fe:	bf 92       	push	r11
     900:	cf 92       	push	r12
     902:	df 92       	push	r13
     904:	ef 92       	push	r14
     906:	ff 92       	push	r15
     908:	0f 93       	push	r16
     90a:	1f 93       	push	r17
     90c:	cf 93       	push	r28
     90e:	df 93       	push	r29
     910:	01 e0       	ldi	r16, 0x01	; 1
     912:	0f 2e       	mov	r0, r31
     914:	fc e3       	ldi	r31, 0x3C	; 60
     916:	8f 2e       	mov	r8, r31
     918:	91 2c       	mov	r9, r1
     91a:	a1 2c       	mov	r10, r1
     91c:	b1 2c       	mov	r11, r1
     91e:	f0 2d       	mov	r31, r0
     920:	10 e0       	ldi	r17, 0x00	; 0
     922:	07 c0       	rjmp	.+14     	; 0x932 <state_machine_bingo_choice+0x3a>
     924:	1f 5f       	subi	r17, 0xFF	; 255
     926:	2a e0       	ldi	r18, 0x0A	; 10
     928:	82 0e       	add	r8, r18
     92a:	91 1c       	adc	r9, r1
     92c:	a1 1c       	adc	r10, r1
     92e:	b1 1c       	adc	r11, r1
     930:	0f 5f       	subi	r16, 0xFF	; 255
     932:	75 01       	movw	r14, r10
     934:	64 01       	movw	r12, r8
     936:	8a e0       	ldi	r24, 0x0A	; 10
     938:	c8 1a       	sub	r12, r24
     93a:	d1 08       	sbc	r13, r1
     93c:	e1 08       	sbc	r14, r1
     93e:	f1 08       	sbc	r15, r1
	
	uint32_t time_ms = 50;
	
	for(uint8_t number_of_dramatic_increments = 0; number_of_dramatic_increments < 7; number_of_dramatic_increments++){
		
		LCD_set_column_and_row(0,1);
     940:	61 e0       	ldi	r22, 0x01	; 1
     942:	80 e0       	ldi	r24, 0x00	; 0
     944:	0e 94 8d 02 	call	0x51a	; 0x51a <LCD_set_column_and_row>
		LCD_print("                ");
     948:	8b e5       	ldi	r24, 0x5B	; 91
     94a:	91 e0       	ldi	r25, 0x01	; 1
     94c:	0e 94 96 02 	call	0x52c	; 0x52c <LCD_print>
		
		if(number_of_dramatic_increments == 0)RGB_LED_set_light_blue();	
     950:	11 11       	cpse	r17, r1
     952:	08 c0       	rjmp	.+16     	; 0x964 <state_machine_bingo_choice+0x6c>
     954:	0e 94 73 03 	call	0x6e6	; 0x6e6 <RGB_LED_set_light_blue>
     958:	19 c1       	rjmp	.+562    	; 0xb8c <state_machine_bingo_choice+0x294>
		else if(number_of_dramatic_increments == 5)RGB_LED_set_white();
		
		else if(number_of_dramatic_increments == 6)RGB_LED_set_pink();
		
		
		for(uint8_t number_of_choices = 0; number_of_choices < choice_counter; number_of_choices++){
     95a:	80 91 f4 01 	lds	r24, 0x01F4	; 0x8001f4 <__data_end>
     95e:	81 11       	cpse	r24, r1
     960:	5b c0       	rjmp	.+182    	; 0xa18 <state_machine_bingo_choice+0x120>
     962:	5d c0       	rjmp	.+186    	; 0xa1e <state_machine_bingo_choice+0x126>
		LCD_set_column_and_row(0,1);
		LCD_print("                ");
		
		if(number_of_dramatic_increments == 0)RGB_LED_set_light_blue();	
		
		else if(number_of_dramatic_increments == 1)RGB_LED_set_green();
     964:	11 30       	cpi	r17, 0x01	; 1
     966:	19 f4       	brne	.+6      	; 0x96e <state_machine_bingo_choice+0x76>
     968:	0e 94 7f 03 	call	0x6fe	; 0x6fe <RGB_LED_set_green>
     96c:	0f c1       	rjmp	.+542    	; 0xb8c <state_machine_bingo_choice+0x294>
		
		else if(number_of_dramatic_increments == 2)RGB_LED_set_dark_blue();	
     96e:	12 30       	cpi	r17, 0x02	; 2
     970:	19 f4       	brne	.+6      	; 0x978 <state_machine_bingo_choice+0x80>
     972:	0e 94 79 03 	call	0x6f2	; 0x6f2 <RGB_LED_set_dark_blue>
     976:	0a c1       	rjmp	.+532    	; 0xb8c <state_machine_bingo_choice+0x294>
		
		else if(number_of_dramatic_increments == 3)RGB_LED_set_red();
     978:	13 30       	cpi	r17, 0x03	; 3
     97a:	19 f4       	brne	.+6      	; 0x982 <state_machine_bingo_choice+0x8a>
     97c:	0e 94 91 03 	call	0x722	; 0x722 <RGB_LED_set_red>
     980:	05 c1       	rjmp	.+522    	; 0xb8c <state_machine_bingo_choice+0x294>
		
		else if(number_of_dramatic_increments == 4)RGB_LED_set_yellow();		
     982:	14 30       	cpi	r17, 0x04	; 4
     984:	19 f4       	brne	.+6      	; 0x98c <state_machine_bingo_choice+0x94>
     986:	0e 94 85 03 	call	0x70a	; 0x70a <RGB_LED_set_yellow>
     98a:	00 c1       	rjmp	.+512    	; 0xb8c <state_machine_bingo_choice+0x294>
		
		else if(number_of_dramatic_increments == 5)RGB_LED_set_white();
     98c:	15 30       	cpi	r17, 0x05	; 5
     98e:	19 f4       	brne	.+6      	; 0x996 <state_machine_bingo_choice+0x9e>
     990:	0e 94 97 03 	call	0x72e	; 0x72e <RGB_LED_set_white>
     994:	fb c0       	rjmp	.+502    	; 0xb8c <state_machine_bingo_choice+0x294>
		
		else if(number_of_dramatic_increments == 6)RGB_LED_set_pink();
     996:	16 30       	cpi	r17, 0x06	; 6
     998:	01 f7       	brne	.-64     	; 0x95a <state_machine_bingo_choice+0x62>
     99a:	0e 94 8b 03 	call	0x716	; 0x716 <RGB_LED_set_pink>
		
		
		for(uint8_t number_of_choices = 0; number_of_choices < choice_counter; number_of_choices++){
     99e:	80 91 f4 01 	lds	r24, 0x01F4	; 0x8001f4 <__data_end>
     9a2:	81 11       	cpse	r24, r1
     9a4:	39 c0       	rjmp	.+114    	; 0xa18 <state_machine_bingo_choice+0x120>
     9a6:	3e c0       	rjmp	.+124    	; 0xa24 <state_machine_bingo_choice+0x12c>
			
			for(uint8_t i = 0; i < 3; i++){
						
				LCD_clear_screen();
     9a8:	0e 94 23 02 	call	0x446	; 0x446 <LCD_clear_screen>
				LCD_set_column_and_row(0,0);
     9ac:	60 e0       	ldi	r22, 0x00	; 0
     9ae:	80 e0       	ldi	r24, 0x00	; 0
     9b0:	0e 94 8d 02 	call	0x51a	; 0x51a <LCD_set_column_and_row>
				LCD_set_column_and_row(0,1);
     9b4:	61 e0       	ldi	r22, 0x01	; 1
     9b6:	80 e0       	ldi	r24, 0x00	; 0
     9b8:	0e 94 8d 02 	call	0x51a	; 0x51a <LCD_set_column_and_row>
				LCD_print("                ");
     9bc:	8b e5       	ldi	r24, 0x5B	; 91
     9be:	91 e0       	ldi	r25, 0x01	; 1
     9c0:	0e 94 96 02 	call	0x52c	; 0x52c <LCD_print>
     9c4:	c1 50       	subi	r28, 0x01	; 1
		else if(number_of_dramatic_increments == 6)RGB_LED_set_pink();
		
		
		for(uint8_t number_of_choices = 0; number_of_choices < choice_counter; number_of_choices++){
			
			for(uint8_t i = 0; i < 3; i++){
     9c6:	81 f7       	brne	.-32     	; 0x9a8 <state_machine_bingo_choice+0xb0>
				LCD_clear_screen();
				LCD_set_column_and_row(0,0);
				LCD_set_column_and_row(0,1);
				LCD_print("                ");
			}
			LCD_set_column_and_row(0,1);
     9c8:	61 e0       	ldi	r22, 0x01	; 1
     9ca:	80 e0       	ldi	r24, 0x00	; 0
     9cc:	0e 94 8d 02 	call	0x51a	; 0x51a <LCD_set_column_and_row>
			LCD_print("                ");
     9d0:	8b e5       	ldi	r24, 0x5B	; 91
     9d2:	91 e0       	ldi	r25, 0x01	; 1
     9d4:	0e 94 96 02 	call	0x52c	; 0x52c <LCD_print>
			LCD_set_column_and_row(0,0);
     9d8:	60 e0       	ldi	r22, 0x00	; 0
     9da:	80 e0       	ldi	r24, 0x00	; 0
     9dc:	0e 94 8d 02 	call	0x51a	; 0x51a <LCD_set_column_and_row>
			LCD_print_first_row(choice[number_of_choices]);
     9e0:	20 e1       	ldi	r18, 0x10	; 16
     9e2:	d2 9f       	mul	r29, r18
     9e4:	c0 01       	movw	r24, r0
     9e6:	11 24       	eor	r1, r1
     9e8:	82 5f       	subi	r24, 0xF2	; 242
     9ea:	9d 4f       	sbci	r25, 0xFD	; 253
     9ec:	0e 94 ac 02 	call	0x558	; 0x558 <LCD_print_first_row>
			LCD_set_column_and_row(0,1);
     9f0:	61 e0       	ldi	r22, 0x01	; 1
     9f2:	80 e0       	ldi	r24, 0x00	; 0
     9f4:	0e 94 8d 02 	call	0x51a	; 0x51a <LCD_set_column_and_row>
			LCD_print("                ");
     9f8:	8b e5       	ldi	r24, 0x5B	; 91
     9fa:	91 e0       	ldi	r25, 0x01	; 1
     9fc:	0e 94 96 02 	call	0x52c	; 0x52c <LCD_print>
			
			buzzer_activate_bingo_tone();
     a00:	0e 94 a5 00 	call	0x14a	; 0x14a <buzzer_activate_bingo_tone>
			timer_0_delay_in_milliseconds(time_ms);
     a04:	c7 01       	movw	r24, r14
     a06:	b6 01       	movw	r22, r12
     a08:	0e 94 67 06 	call	0xcce	; 0xcce <timer_0_delay_in_milliseconds>
		else if(number_of_dramatic_increments == 5)RGB_LED_set_white();
		
		else if(number_of_dramatic_increments == 6)RGB_LED_set_pink();
		
		
		for(uint8_t number_of_choices = 0; number_of_choices < choice_counter; number_of_choices++){
     a0c:	df 5f       	subi	r29, 0xFF	; 255
     a0e:	80 91 f4 01 	lds	r24, 0x01F4	; 0x8001f4 <__data_end>
     a12:	d8 17       	cp	r29, r24
     a14:	10 f0       	brcs	.+4      	; 0xa1a <state_machine_bingo_choice+0x122>
     a16:	03 c0       	rjmp	.+6      	; 0xa1e <state_machine_bingo_choice+0x126>
	
	buzzer_activate_button_has_been_pushed_tone();
	while(buttons_and_switches_start_button_is_pushed());
}

void state_machine_bingo_choice(void){
     a18:	d0 e0       	ldi	r29, 0x00	; 0
     a1a:	c3 e0       	ldi	r28, 0x03	; 3
     a1c:	c5 cf       	rjmp	.-118    	; 0x9a8 <state_machine_bingo_choice+0xb0>
	
	uint32_t time_ms = 50;
	
	for(uint8_t number_of_dramatic_increments = 0; number_of_dramatic_increments < 7; number_of_dramatic_increments++){
     a1e:	07 30       	cpi	r16, 0x07	; 7
     a20:	08 f4       	brcc	.+2      	; 0xa24 <state_machine_bingo_choice+0x12c>
     a22:	80 cf       	rjmp	.-256    	; 0x924 <state_machine_bingo_choice+0x2c>
		}
		
		time_ms += 10;
	}
	
	srand(strlen(choice[0]) + strlen(choice[1]) + choice_counter);
     a24:	ee e0       	ldi	r30, 0x0E	; 14
     a26:	f2 e0       	ldi	r31, 0x02	; 2
     a28:	01 90       	ld	r0, Z+
     a2a:	00 20       	and	r0, r0
     a2c:	e9 f7       	brne	.-6      	; 0xa28 <state_machine_bingo_choice+0x130>
     a2e:	31 97       	sbiw	r30, 0x01	; 1
     a30:	ee 50       	subi	r30, 0x0E	; 14
     a32:	f2 40       	sbci	r31, 0x02	; 2
     a34:	ae e1       	ldi	r26, 0x1E	; 30
     a36:	b2 e0       	ldi	r27, 0x02	; 2
     a38:	0d 90       	ld	r0, X+
     a3a:	00 20       	and	r0, r0
     a3c:	e9 f7       	brne	.-6      	; 0xa38 <state_machine_bingo_choice+0x140>
     a3e:	cd 01       	movw	r24, r26
     a40:	8f 51       	subi	r24, 0x1F	; 31
     a42:	92 40       	sbci	r25, 0x02	; 2
     a44:	20 91 f4 01 	lds	r18, 0x01F4	; 0x8001f4 <__data_end>
     a48:	8e 0f       	add	r24, r30
     a4a:	9f 1f       	adc	r25, r31
     a4c:	82 0f       	add	r24, r18
     a4e:	91 1d       	adc	r25, r1
     a50:	0e 94 8b 0a 	call	0x1516	; 0x1516 <srand>
	
	if((rand() % choice_counter + 1) == choice_counter)LCD_print_first_row(" Idi u kafanu! ");
     a54:	0e 94 86 0a 	call	0x150c	; 0x150c <rand>
     a58:	60 91 f4 01 	lds	r22, 0x01F4	; 0x8001f4 <__data_end>
     a5c:	20 91 f4 01 	lds	r18, 0x01F4	; 0x8001f4 <__data_end>
     a60:	70 e0       	ldi	r23, 0x00	; 0
     a62:	0e 94 ea 09 	call	0x13d4	; 0x13d4 <__divmodhi4>
     a66:	01 96       	adiw	r24, 0x01	; 1
     a68:	30 e0       	ldi	r19, 0x00	; 0
     a6a:	82 17       	cp	r24, r18
     a6c:	93 07       	cpc	r25, r19
     a6e:	29 f4       	brne	.+10     	; 0xa7a <state_machine_bingo_choice+0x182>
     a70:	8c e6       	ldi	r24, 0x6C	; 108
     a72:	91 e0       	ldi	r25, 0x01	; 1
     a74:	0e 94 ac 02 	call	0x558	; 0x558 <LCD_print_first_row>
     a78:	66 c0       	rjmp	.+204    	; 0xb46 <state_machine_bingo_choice+0x24e>
	
	else if((rand() % choice_counter + 2) == (choice_counter + 1))LCD_print_in_two_rows("  Drop it like  ", "    it's hot!     ");
     a7a:	0e 94 86 0a 	call	0x150c	; 0x150c <rand>
     a7e:	60 91 f4 01 	lds	r22, 0x01F4	; 0x8001f4 <__data_end>
     a82:	20 91 f4 01 	lds	r18, 0x01F4	; 0x8001f4 <__data_end>
     a86:	70 e0       	ldi	r23, 0x00	; 0
     a88:	0e 94 ea 09 	call	0x13d4	; 0x13d4 <__divmodhi4>
     a8c:	02 96       	adiw	r24, 0x02	; 2
     a8e:	30 e0       	ldi	r19, 0x00	; 0
     a90:	2f 5f       	subi	r18, 0xFF	; 255
     a92:	3f 4f       	sbci	r19, 0xFF	; 255
     a94:	82 17       	cp	r24, r18
     a96:	93 07       	cpc	r25, r19
     a98:	39 f4       	brne	.+14     	; 0xaa8 <state_machine_bingo_choice+0x1b0>
     a9a:	6c e7       	ldi	r22, 0x7C	; 124
     a9c:	71 e0       	ldi	r23, 0x01	; 1
     a9e:	8f e8       	ldi	r24, 0x8F	; 143
     aa0:	91 e0       	ldi	r25, 0x01	; 1
     aa2:	0e 94 c8 02 	call	0x590	; 0x590 <LCD_print_in_two_rows>
     aa6:	4f c0       	rjmp	.+158    	; 0xb46 <state_machine_bingo_choice+0x24e>
	
	else if((rand() % choice_counter + 3) == (choice_counter + 2))LCD_print_in_two_rows("Zagrli nekog bez", "ikakve emocije!");
     aa8:	0e 94 86 0a 	call	0x150c	; 0x150c <rand>
     aac:	60 91 f4 01 	lds	r22, 0x01F4	; 0x8001f4 <__data_end>
     ab0:	20 91 f4 01 	lds	r18, 0x01F4	; 0x8001f4 <__data_end>
     ab4:	70 e0       	ldi	r23, 0x00	; 0
     ab6:	0e 94 ea 09 	call	0x13d4	; 0x13d4 <__divmodhi4>
     aba:	ac 01       	movw	r20, r24
     abc:	4d 5f       	subi	r20, 0xFD	; 253
     abe:	5f 4f       	sbci	r21, 0xFF	; 255
     ac0:	82 2f       	mov	r24, r18
     ac2:	90 e0       	ldi	r25, 0x00	; 0
     ac4:	02 96       	adiw	r24, 0x02	; 2
     ac6:	48 17       	cp	r20, r24
     ac8:	59 07       	cpc	r21, r25
     aca:	39 f4       	brne	.+14     	; 0xada <state_machine_bingo_choice+0x1e2>
     acc:	60 ea       	ldi	r22, 0xA0	; 160
     ace:	71 e0       	ldi	r23, 0x01	; 1
     ad0:	80 eb       	ldi	r24, 0xB0	; 176
     ad2:	91 e0       	ldi	r25, 0x01	; 1
     ad4:	0e 94 c8 02 	call	0x590	; 0x590 <LCD_print_in_two_rows>
     ad8:	36 c0       	rjmp	.+108    	; 0xb46 <state_machine_bingo_choice+0x24e>
     ada:	c3 e0       	ldi	r28, 0x03	; 3
							
	else {
		
		for(uint8_t i = 0; i < 3; i++){
			
			LCD_clear_screen();
     adc:	0e 94 23 02 	call	0x446	; 0x446 <LCD_clear_screen>
			LCD_set_column_and_row(0,0);
     ae0:	60 e0       	ldi	r22, 0x00	; 0
     ae2:	80 e0       	ldi	r24, 0x00	; 0
     ae4:	0e 94 8d 02 	call	0x51a	; 0x51a <LCD_set_column_and_row>
			LCD_set_column_and_row(0,1);
     ae8:	61 e0       	ldi	r22, 0x01	; 1
     aea:	80 e0       	ldi	r24, 0x00	; 0
     aec:	0e 94 8d 02 	call	0x51a	; 0x51a <LCD_set_column_and_row>
			LCD_print("                ");
     af0:	8b e5       	ldi	r24, 0x5B	; 91
     af2:	91 e0       	ldi	r25, 0x01	; 1
     af4:	0e 94 96 02 	call	0x52c	; 0x52c <LCD_print>
     af8:	c1 50       	subi	r28, 0x01	; 1
	
	else if((rand() % choice_counter + 3) == (choice_counter + 2))LCD_print_in_two_rows("Zagrli nekog bez", "ikakve emocije!");
							
	else {
		
		for(uint8_t i = 0; i < 3; i++){
     afa:	81 f7       	brne	.-32     	; 0xadc <state_machine_bingo_choice+0x1e4>
			LCD_clear_screen();
			LCD_set_column_and_row(0,0);
			LCD_set_column_and_row(0,1);
			LCD_print("                ");
		}
		LCD_set_column_and_row(0,1);
     afc:	61 e0       	ldi	r22, 0x01	; 1
     afe:	80 e0       	ldi	r24, 0x00	; 0
     b00:	0e 94 8d 02 	call	0x51a	; 0x51a <LCD_set_column_and_row>
		LCD_print("                ");
     b04:	8b e5       	ldi	r24, 0x5B	; 91
     b06:	91 e0       	ldi	r25, 0x01	; 1
     b08:	0e 94 96 02 	call	0x52c	; 0x52c <LCD_print>
		LCD_set_column_and_row(0,0);
     b0c:	60 e0       	ldi	r22, 0x00	; 0
     b0e:	80 e0       	ldi	r24, 0x00	; 0
     b10:	0e 94 8d 02 	call	0x51a	; 0x51a <LCD_set_column_and_row>
		LCD_print_first_row(choice[rand() % choice_counter]);
     b14:	0e 94 86 0a 	call	0x150c	; 0x150c <rand>
     b18:	60 91 f4 01 	lds	r22, 0x01F4	; 0x8001f4 <__data_end>
     b1c:	70 e0       	ldi	r23, 0x00	; 0
     b1e:	0e 94 ea 09 	call	0x13d4	; 0x13d4 <__divmodhi4>
     b22:	82 95       	swap	r24
     b24:	92 95       	swap	r25
     b26:	90 7f       	andi	r25, 0xF0	; 240
     b28:	98 27       	eor	r25, r24
     b2a:	80 7f       	andi	r24, 0xF0	; 240
     b2c:	98 27       	eor	r25, r24
     b2e:	82 5f       	subi	r24, 0xF2	; 242
     b30:	9d 4f       	sbci	r25, 0xFD	; 253
     b32:	0e 94 ac 02 	call	0x558	; 0x558 <LCD_print_first_row>
		LCD_set_column_and_row(0,1);
     b36:	61 e0       	ldi	r22, 0x01	; 1
     b38:	80 e0       	ldi	r24, 0x00	; 0
     b3a:	0e 94 8d 02 	call	0x51a	; 0x51a <LCD_set_column_and_row>
		LCD_print("                ");
     b3e:	8b e5       	ldi	r24, 0x5B	; 91
     b40:	91 e0       	ldi	r25, 0x01	; 1
     b42:	0e 94 96 02 	call	0x52c	; 0x52c <LCD_print>
	}
		
	choice_counter = 0;
     b46:	10 92 f4 01 	sts	0x01F4, r1	; 0x8001f4 <__data_end>
	
	RGB_LED_set_red();
     b4a:	0e 94 91 03 	call	0x722	; 0x722 <RGB_LED_set_red>
	buzzer_activate_choice_has_been_made_tone();
     b4e:	0e 94 ad 00 	call	0x15a	; 0x15a <buzzer_activate_choice_has_been_made_tone>
	
	while(!buttons_and_switches_start_button_is_pushed());
     b52:	0e 94 5d 00 	call	0xba	; 0xba <buttons_and_switches_start_button_is_pushed>
     b56:	88 23       	and	r24, r24
     b58:	e1 f3       	breq	.-8      	; 0xb52 <state_machine_bingo_choice+0x25a>
	
	state = WAITING;
     b5a:	10 92 f5 01 	sts	0x01F5, r1	; 0x8001f5 <state>
	RGB_LED_set_dark_blue();
     b5e:	0e 94 79 03 	call	0x6f2	; 0x6f2 <RGB_LED_set_dark_blue>
	
	LCD_print_in_two_rows(" Otpusti taster ","i zapocni ponovo");
     b62:	61 ec       	ldi	r22, 0xC1	; 193
     b64:	71 e0       	ldi	r23, 0x01	; 1
     b66:	8a e4       	ldi	r24, 0x4A	; 74
     b68:	91 e0       	ldi	r25, 0x01	; 1
     b6a:	0e 94 c8 02 	call	0x590	; 0x590 <LCD_print_in_two_rows>

	buzzer_activate_button_has_been_pushed_tone();
     b6e:	0e 94 95 00 	call	0x12a	; 0x12a <buzzer_activate_button_has_been_pushed_tone>
	
	while(buttons_and_switches_start_button_is_pushed());
     b72:	0e 94 5d 00 	call	0xba	; 0xba <buttons_and_switches_start_button_is_pushed>
     b76:	81 11       	cpse	r24, r1
     b78:	fc cf       	rjmp	.-8      	; 0xb72 <state_machine_bingo_choice+0x27a>
	
	state_machine_print_waiting_state();
     b7a:	0e 94 b4 03 	call	0x768	; 0x768 <state_machine_print_waiting_state>
	
	RGB_LED_set_green();
     b7e:	0e 94 7f 03 	call	0x6fe	; 0x6fe <RGB_LED_set_green>
	buzzer_activate_interaction_tone();
     b82:	0e 94 9d 00 	call	0x13a	; 0x13a <buzzer_activate_interaction_tone>
	
	USART_empty_the_RX_buffer();
     b86:	0e 94 f6 07 	call	0xfec	; 0xfec <USART_empty_the_RX_buffer>
}
     b8a:	05 c0       	rjmp	.+10     	; 0xb96 <state_machine_bingo_choice+0x29e>
		else if(number_of_dramatic_increments == 5)RGB_LED_set_white();
		
		else if(number_of_dramatic_increments == 6)RGB_LED_set_pink();
		
		
		for(uint8_t number_of_choices = 0; number_of_choices < choice_counter; number_of_choices++){
     b8c:	80 91 f4 01 	lds	r24, 0x01F4	; 0x8001f4 <__data_end>
     b90:	81 11       	cpse	r24, r1
     b92:	42 cf       	rjmp	.-380    	; 0xa18 <state_machine_bingo_choice+0x120>
     b94:	c7 ce       	rjmp	.-626    	; 0x924 <state_machine_bingo_choice+0x2c>
	
	RGB_LED_set_green();
	buzzer_activate_interaction_tone();
	
	USART_empty_the_RX_buffer();
}
     b96:	df 91       	pop	r29
     b98:	cf 91       	pop	r28
     b9a:	1f 91       	pop	r17
     b9c:	0f 91       	pop	r16
     b9e:	ff 90       	pop	r15
     ba0:	ef 90       	pop	r14
     ba2:	df 90       	pop	r13
     ba4:	cf 90       	pop	r12
     ba6:	bf 90       	pop	r11
     ba8:	af 90       	pop	r10
     baa:	9f 90       	pop	r9
     bac:	8f 90       	pop	r8
     bae:	08 95       	ret

00000bb0 <state_machine_error_message>:

void state_machine_error_message(void){
	
	if(choice_counter < 2){
     bb0:	80 91 f4 01 	lds	r24, 0x01F4	; 0x8001f4 <__data_end>
     bb4:	82 30       	cpi	r24, 0x02	; 2
     bb6:	f8 f4       	brcc	.+62     	; 0xbf6 <state_machine_error_message+0x46>
	
		RGB_LED_set_red();
     bb8:	0e 94 91 03 	call	0x722	; 0x722 <RGB_LED_set_red>
	
		LCD_print_in_two_rows("Moras uneti bar ", "dva izbora maco ");
     bbc:	62 ed       	ldi	r22, 0xD2	; 210
     bbe:	71 e0       	ldi	r23, 0x01	; 1
     bc0:	83 ee       	ldi	r24, 0xE3	; 227
     bc2:	91 e0       	ldi	r25, 0x01	; 1
     bc4:	0e 94 c8 02 	call	0x590	; 0x590 <LCD_print_in_two_rows>

		buzzer_activate_button_has_been_pushed_tone();
     bc8:	0e 94 95 00 	call	0x12a	; 0x12a <buzzer_activate_button_has_been_pushed_tone>
     bcc:	2f ef       	ldi	r18, 0xFF	; 255
     bce:	88 e0       	ldi	r24, 0x08	; 8
     bd0:	9d e3       	ldi	r25, 0x3D	; 61
     bd2:	21 50       	subi	r18, 0x01	; 1
     bd4:	80 40       	sbci	r24, 0x00	; 0
     bd6:	90 40       	sbci	r25, 0x00	; 0
     bd8:	e1 f7       	brne	.-8      	; 0xbd2 <state_machine_error_message+0x22>
     bda:	00 c0       	rjmp	.+0      	; 0xbdc <state_machine_error_message+0x2c>
     bdc:	00 00       	nop
	
		_delay_ms(2500);
	
		while(buttons_and_switches_start_button_is_pushed());
     bde:	0e 94 5d 00 	call	0xba	; 0xba <buttons_and_switches_start_button_is_pushed>
     be2:	81 11       	cpse	r24, r1
     be4:	fc cf       	rjmp	.-8      	; 0xbde <state_machine_error_message+0x2e>
	
		state_machine_print_waiting_state();
     be6:	0e 94 b4 03 	call	0x768	; 0x768 <state_machine_print_waiting_state>
		
		RGB_LED_set_green();
     bea:	0e 94 7f 03 	call	0x6fe	; 0x6fe <RGB_LED_set_green>
		buzzer_activate_interaction_tone();
     bee:	0e 94 9d 00 	call	0x13a	; 0x13a <buzzer_activate_interaction_tone>
		
		USART_empty_the_RX_buffer();
     bf2:	0e 94 f6 07 	call	0xfec	; 0xfec <USART_empty_the_RX_buffer>
     bf6:	08 95       	ret

00000bf8 <state_machine_routine>:
	}
}

void state_machine_routine(void){

	event = state_machine_get_event();
     bf8:	0e 94 9d 03 	call	0x73a	; 0x73a <state_machine_get_event>
     bfc:	80 93 f6 01 	sts	0x01F6, r24	; 0x8001f6 <event>

	switch(state){
     c00:	80 91 f5 01 	lds	r24, 0x01F5	; 0x8001f5 <state>
     c04:	88 23       	and	r24, r24
     c06:	19 f0       	breq	.+6      	; 0xc0e <state_machine_routine+0x16>
     c08:	81 30       	cpi	r24, 0x01	; 1
     c0a:	99 f0       	breq	.+38     	; 0xc32 <state_machine_routine+0x3a>
     c0c:	08 95       	ret
		
		case WAITING: {
			
			switch(event){
     c0e:	80 91 f6 01 	lds	r24, 0x01F6	; 0x8001f6 <event>
     c12:	82 30       	cpi	r24, 0x02	; 2
     c14:	29 f0       	breq	.+10     	; 0xc20 <state_machine_routine+0x28>
     c16:	83 30       	cpi	r24, 0x03	; 3
     c18:	49 f0       	breq	.+18     	; 0xc2c <state_machine_routine+0x34>
     c1a:	81 30       	cpi	r24, 0x01	; 1
     c1c:	71 f4       	brne	.+28     	; 0xc3a <state_machine_routine+0x42>
     c1e:	03 c0       	rjmp	.+6      	; 0xc26 <state_machine_routine+0x2e>
				
				case START: state_machine_start();break;
     c20:	0e 94 6a 04 	call	0x8d4	; 0x8d4 <state_machine_start>
     c24:	08 95       	ret
				
				case CHOICE_IS_BEING_RECEIVED: state_machine_update_choice_matrix();break; //ulazi beskonacno u ovo
     c26:	0e 94 e3 03 	call	0x7c6	; 0x7c6 <state_machine_update_choice_matrix>
     c2a:	08 95       	ret
				
				case ERROR: state_machine_error_message();break;
     c2c:	0e 94 d8 05 	call	0xbb0	; 0xbb0 <state_machine_error_message>
     c30:	08 95       	ret
			break;
		}
		
		case BINGOING_CHOICE: {
			
			switch(event){
     c32:	80 91 f6 01 	lds	r24, 0x01F6	; 0x8001f6 <event>
						
				default: state_machine_bingo_choice();break;
     c36:	0e 94 7c 04 	call	0x8f8	; 0x8f8 <state_machine_bingo_choice>
     c3a:	08 95       	ret

00000c3c <__vector_10>:
volatile uint16_t reset_sum_of_impulses_timer = 0;
volatile uint8_t reset_sum_of_impulses_time_count = RESET_SUM_OF_IMPULSES_TIME_COUNT;
volatile uint32_t countdown_timer = 0;
volatile uint8_t number_of_counts = NUMBER_OF_COUNTS;

ISR (TIMER0_COMP_vect){
     c3c:	1f 92       	push	r1
     c3e:	0f 92       	push	r0
     c40:	0f b6       	in	r0, 0x3f	; 63
     c42:	0f 92       	push	r0
     c44:	11 24       	eor	r1, r1
     c46:	8f 93       	push	r24
     c48:	9f 93       	push	r25
     c4a:	af 93       	push	r26
     c4c:	bf 93       	push	r27

	timer_counter++;
     c4e:	80 91 fd 01 	lds	r24, 0x01FD	; 0x8001fd <timer_counter>
     c52:	90 91 fe 01 	lds	r25, 0x01FE	; 0x8001fe <timer_counter+0x1>
     c56:	a0 91 ff 01 	lds	r26, 0x01FF	; 0x8001ff <timer_counter+0x2>
     c5a:	b0 91 00 02 	lds	r27, 0x0200	; 0x800200 <timer_counter+0x3>
     c5e:	01 96       	adiw	r24, 0x01	; 1
     c60:	a1 1d       	adc	r26, r1
     c62:	b1 1d       	adc	r27, r1
     c64:	80 93 fd 01 	sts	0x01FD, r24	; 0x8001fd <timer_counter>
     c68:	90 93 fe 01 	sts	0x01FE, r25	; 0x8001fe <timer_counter+0x1>
     c6c:	a0 93 ff 01 	sts	0x01FF, r26	; 0x8001ff <timer_counter+0x2>
     c70:	b0 93 00 02 	sts	0x0200, r27	; 0x800200 <timer_counter+0x3>
	countdown_timer++;
     c74:	80 91 f7 01 	lds	r24, 0x01F7	; 0x8001f7 <countdown_timer>
     c78:	90 91 f8 01 	lds	r25, 0x01F8	; 0x8001f8 <countdown_timer+0x1>
     c7c:	a0 91 f9 01 	lds	r26, 0x01F9	; 0x8001f9 <countdown_timer+0x2>
     c80:	b0 91 fa 01 	lds	r27, 0x01FA	; 0x8001fa <countdown_timer+0x3>
     c84:	01 96       	adiw	r24, 0x01	; 1
     c86:	a1 1d       	adc	r26, r1
     c88:	b1 1d       	adc	r27, r1
     c8a:	80 93 f7 01 	sts	0x01F7, r24	; 0x8001f7 <countdown_timer>
     c8e:	90 93 f8 01 	sts	0x01F8, r25	; 0x8001f8 <countdown_timer+0x1>
     c92:	a0 93 f9 01 	sts	0x01F9, r26	; 0x8001f9 <countdown_timer+0x2>
     c96:	b0 93 fa 01 	sts	0x01FA, r27	; 0x8001fa <countdown_timer+0x3>
	reset_sum_of_impulses_timer++;
     c9a:	80 91 fb 01 	lds	r24, 0x01FB	; 0x8001fb <reset_sum_of_impulses_timer>
     c9e:	90 91 fc 01 	lds	r25, 0x01FC	; 0x8001fc <reset_sum_of_impulses_timer+0x1>
     ca2:	01 96       	adiw	r24, 0x01	; 1
     ca4:	90 93 fc 01 	sts	0x01FC, r25	; 0x8001fc <reset_sum_of_impulses_timer+0x1>
     ca8:	80 93 fb 01 	sts	0x01FB, r24	; 0x8001fb <reset_sum_of_impulses_timer>
}
     cac:	bf 91       	pop	r27
     cae:	af 91       	pop	r26
     cb0:	9f 91       	pop	r25
     cb2:	8f 91       	pop	r24
     cb4:	0f 90       	pop	r0
     cb6:	0f be       	out	0x3f, r0	; 63
     cb8:	0f 90       	pop	r0
     cba:	1f 90       	pop	r1
     cbc:	18 95       	reti

00000cbe <timer_0_initialize>:

void timer_0_initialize(void){

	TCCR0  = TCCRO_INITIAL_STATE;
     cbe:	8b e0       	ldi	r24, 0x0B	; 11
     cc0:	83 bf       	out	0x33, r24	; 51
	TCNT0  = TCNT0_INITIAL_STATE;
     cc2:	12 be       	out	0x32, r1	; 50
	OCR0   = OCR0_INITIAL_STATE;
     cc4:	8d e7       	ldi	r24, 0x7D	; 125
     cc6:	8c bf       	out	0x3c, r24	; 60
	TIMSK  = ENABLE_TIMER_0_OUTPUT_COMPARE_MATCH_INTERRUPT;
     cc8:	82 e0       	ldi	r24, 0x02	; 2
     cca:	89 bf       	out	0x39, r24	; 57
     ccc:	08 95       	ret

00000cce <timer_0_delay_in_milliseconds>:
}

void timer_0_delay_in_milliseconds(uint32_t time_of_delay_in_milliseconds){
     cce:	ab 01       	movw	r20, r22
     cd0:	bc 01       	movw	r22, r24

	timer_counter = 0;
     cd2:	10 92 fd 01 	sts	0x01FD, r1	; 0x8001fd <timer_counter>
     cd6:	10 92 fe 01 	sts	0x01FE, r1	; 0x8001fe <timer_counter+0x1>
     cda:	10 92 ff 01 	sts	0x01FF, r1	; 0x8001ff <timer_counter+0x2>
     cde:	10 92 00 02 	sts	0x0200, r1	; 0x800200 <timer_counter+0x3>
	while(timer_counter != time_of_delay_in_milliseconds);
     ce2:	80 91 fd 01 	lds	r24, 0x01FD	; 0x8001fd <timer_counter>
     ce6:	90 91 fe 01 	lds	r25, 0x01FE	; 0x8001fe <timer_counter+0x1>
     cea:	a0 91 ff 01 	lds	r26, 0x01FF	; 0x8001ff <timer_counter+0x2>
     cee:	b0 91 00 02 	lds	r27, 0x0200	; 0x800200 <timer_counter+0x3>
     cf2:	84 17       	cp	r24, r20
     cf4:	95 07       	cpc	r25, r21
     cf6:	a6 07       	cpc	r26, r22
     cf8:	b7 07       	cpc	r27, r23
     cfa:	99 f7       	brne	.-26     	; 0xce2 <timer_0_delay_in_milliseconds+0x14>
}
     cfc:	08 95       	ret

00000cfe <USART_initialize_with_baud_rate>:
}

void USART_echo(void){

	char* echo = USART_get_string();
	USART_print_line(echo);
     cfe:	2a b1       	in	r18, 0x0a	; 10
     d00:	28 61       	ori	r18, 0x18	; 24
     d02:	2a b9       	out	0x0a, r18	; 10
     d04:	20 b5       	in	r18, 0x20	; 32
     d06:	26 68       	ori	r18, 0x86	; 134
     d08:	20 bd       	out	0x20, r18	; 32
     d0a:	dc 01       	movw	r26, r24
     d0c:	cb 01       	movw	r24, r22
     d0e:	88 0f       	add	r24, r24
     d10:	99 1f       	adc	r25, r25
     d12:	aa 1f       	adc	r26, r26
     d14:	bb 1f       	adc	r27, r27
     d16:	88 0f       	add	r24, r24
     d18:	99 1f       	adc	r25, r25
     d1a:	aa 1f       	adc	r26, r26
     d1c:	bb 1f       	adc	r27, r27
     d1e:	9c 01       	movw	r18, r24
     d20:	ad 01       	movw	r20, r26
     d22:	22 0f       	add	r18, r18
     d24:	33 1f       	adc	r19, r19
     d26:	44 1f       	adc	r20, r20
     d28:	55 1f       	adc	r21, r21
     d2a:	22 0f       	add	r18, r18
     d2c:	33 1f       	adc	r19, r19
     d2e:	44 1f       	adc	r20, r20
     d30:	55 1f       	adc	r21, r21
     d32:	60 e0       	ldi	r22, 0x00	; 0
     d34:	72 e1       	ldi	r23, 0x12	; 18
     d36:	8a e7       	ldi	r24, 0x7A	; 122
     d38:	90 e0       	ldi	r25, 0x00	; 0
     d3a:	0e 94 fe 09 	call	0x13fc	; 0x13fc <__udivmodsi4>
     d3e:	8f ef       	ldi	r24, 0xFF	; 255
     d40:	82 0f       	add	r24, r18
     d42:	89 b9       	out	0x09, r24	; 9
     d44:	da 01       	movw	r26, r20
     d46:	c9 01       	movw	r24, r18
     d48:	01 97       	sbiw	r24, 0x01	; 1
     d4a:	a1 09       	sbc	r26, r1
     d4c:	b1 09       	sbc	r27, r1
     d4e:	89 2f       	mov	r24, r25
     d50:	9a 2f       	mov	r25, r26
     d52:	ab 2f       	mov	r26, r27
     d54:	bb 27       	eor	r27, r27
     d56:	80 bd       	out	0x20, r24	; 32
     d58:	08 95       	ret

00000d5a <USART_initialize>:
     d5a:	60 e8       	ldi	r22, 0x80	; 128
     d5c:	75 e2       	ldi	r23, 0x25	; 37
     d5e:	80 e0       	ldi	r24, 0x00	; 0
     d60:	90 e0       	ldi	r25, 0x00	; 0
     d62:	0e 94 7f 06 	call	0xcfe	; 0xcfe <USART_initialize_with_baud_rate>
     d66:	08 95       	ret

00000d68 <USART_get_character>:
     d68:	5f 9b       	sbis	0x0b, 7	; 11
     d6a:	fe cf       	rjmp	.-4      	; 0xd68 <USART_get_character>
     d6c:	8c b1       	in	r24, 0x0c	; 12
     d6e:	08 95       	ret

00000d70 <USART_get_string>:
     d70:	cf 93       	push	r28
     d72:	0e 94 b4 06 	call	0xd68	; 0xd68 <USART_get_character>
     d76:	8a 30       	cpi	r24, 0x0A	; 10
     d78:	e1 f3       	breq	.-8      	; 0xd72 <USART_get_string+0x2>
     d7a:	8d 30       	cpi	r24, 0x0D	; 13
     d7c:	61 f0       	breq	.+24     	; 0xd96 <USART_get_string+0x26>
     d7e:	c0 e0       	ldi	r28, 0x00	; 0
     d80:	ec 2f       	mov	r30, r28
     d82:	f0 e0       	ldi	r31, 0x00	; 0
     d84:	e2 57       	subi	r30, 0x72	; 114
     d86:	fd 4f       	sbci	r31, 0xFD	; 253
     d88:	80 83       	st	Z, r24
     d8a:	cf 5f       	subi	r28, 0xFF	; 255
     d8c:	0e 94 b4 06 	call	0xd68	; 0xd68 <USART_get_character>
     d90:	8d 30       	cpi	r24, 0x0D	; 13
     d92:	b1 f7       	brne	.-20     	; 0xd80 <USART_get_string+0x10>
     d94:	01 c0       	rjmp	.+2      	; 0xd98 <USART_get_string+0x28>
     d96:	c0 e0       	ldi	r28, 0x00	; 0
     d98:	ec 2f       	mov	r30, r28
     d9a:	f0 e0       	ldi	r31, 0x00	; 0
     d9c:	e2 57       	subi	r30, 0x72	; 114
     d9e:	fd 4f       	sbci	r31, 0xFD	; 253
     da0:	10 82       	st	Z, r1
     da2:	8e e8       	ldi	r24, 0x8E	; 142
     da4:	92 e0       	ldi	r25, 0x02	; 2
     da6:	cf 91       	pop	r28
     da8:	08 95       	ret

00000daa <USART_print_character>:
     daa:	5d 9b       	sbis	0x0b, 5	; 11
     dac:	fe cf       	rjmp	.-4      	; 0xdaa <USART_print_character>
     dae:	8c b9       	out	0x0c, r24	; 12
     db0:	08 95       	ret

00000db2 <USART_print>:
     db2:	0f 93       	push	r16
     db4:	1f 93       	push	r17
     db6:	cf 93       	push	r28
     db8:	fc 01       	movw	r30, r24
     dba:	80 81       	ld	r24, Z
     dbc:	88 23       	and	r24, r24
     dbe:	59 f0       	breq	.+22     	; 0xdd6 <USART_print+0x24>
     dc0:	8f 01       	movw	r16, r30
     dc2:	c0 e0       	ldi	r28, 0x00	; 0
     dc4:	0e 94 d5 06 	call	0xdaa	; 0xdaa <USART_print_character>
     dc8:	cf 5f       	subi	r28, 0xFF	; 255
     dca:	f8 01       	movw	r30, r16
     dcc:	ec 0f       	add	r30, r28
     dce:	f1 1d       	adc	r31, r1
     dd0:	80 81       	ld	r24, Z
     dd2:	81 11       	cpse	r24, r1
     dd4:	f7 cf       	rjmp	.-18     	; 0xdc4 <USART_print+0x12>
     dd6:	cf 91       	pop	r28
     dd8:	1f 91       	pop	r17
     dda:	0f 91       	pop	r16
     ddc:	08 95       	ret

00000dde <USART_print_line>:
     dde:	0e 94 d9 06 	call	0xdb2	; 0xdb2 <USART_print>
     de2:	8a e0       	ldi	r24, 0x0A	; 10
     de4:	0e 94 d5 06 	call	0xdaa	; 0xdaa <USART_print_character>
     de8:	08 95       	ret

00000dea <USART_print_number>:
     dea:	cf 92       	push	r12
     dec:	df 92       	push	r13
     dee:	ef 92       	push	r14
     df0:	ff 92       	push	r15
     df2:	cf 93       	push	r28
     df4:	df 93       	push	r29
     df6:	cd b7       	in	r28, 0x3d	; 61
     df8:	de b7       	in	r29, 0x3e	; 62
     dfa:	2b 97       	sbiw	r28, 0x0b	; 11
     dfc:	0f b6       	in	r0, 0x3f	; 63
     dfe:	f8 94       	cli
     e00:	de bf       	out	0x3e, r29	; 62
     e02:	0f be       	out	0x3f, r0	; 63
     e04:	cd bf       	out	0x3d, r28	; 61
     e06:	6b 01       	movw	r12, r22
     e08:	7c 01       	movw	r14, r24
     e0a:	8b e0       	ldi	r24, 0x0B	; 11
     e0c:	e4 e6       	ldi	r30, 0x64	; 100
     e0e:	f0 e0       	ldi	r31, 0x00	; 0
     e10:	de 01       	movw	r26, r28
     e12:	11 96       	adiw	r26, 0x01	; 1
     e14:	01 90       	ld	r0, Z+
     e16:	0d 92       	st	X+, r0
     e18:	8a 95       	dec	r24
     e1a:	e1 f7       	brne	.-8      	; 0xe14 <USART_print_number+0x2a>
     e1c:	c7 01       	movw	r24, r14
     e1e:	b6 01       	movw	r22, r12
     e20:	0e 94 f4 00 	call	0x1e8	; 0x1e8 <common_get_tenth_digit>
     e24:	89 83       	std	Y+1, r24	; 0x01
     e26:	c7 01       	movw	r24, r14
     e28:	b6 01       	movw	r22, r12
     e2a:	0e 94 fe 00 	call	0x1fc	; 0x1fc <common_get_ninth_digit>
     e2e:	8a 83       	std	Y+2, r24	; 0x02
     e30:	c7 01       	movw	r24, r14
     e32:	b6 01       	movw	r22, r12
     e34:	0e 94 0e 01 	call	0x21c	; 0x21c <common_get_eighth_digit>
     e38:	8b 83       	std	Y+3, r24	; 0x03
     e3a:	c7 01       	movw	r24, r14
     e3c:	b6 01       	movw	r22, r12
     e3e:	0e 94 1e 01 	call	0x23c	; 0x23c <common_get_seventh_digit>
     e42:	8c 83       	std	Y+4, r24	; 0x04
     e44:	c7 01       	movw	r24, r14
     e46:	b6 01       	movw	r22, r12
     e48:	0e 94 2e 01 	call	0x25c	; 0x25c <common_get_sixth_digit>
     e4c:	8d 83       	std	Y+5, r24	; 0x05
     e4e:	c7 01       	movw	r24, r14
     e50:	b6 01       	movw	r22, r12
     e52:	0e 94 3e 01 	call	0x27c	; 0x27c <common_get_fifth_digit>
     e56:	8e 83       	std	Y+6, r24	; 0x06
     e58:	c7 01       	movw	r24, r14
     e5a:	b6 01       	movw	r22, r12
     e5c:	0e 94 4e 01 	call	0x29c	; 0x29c <common_get_fourth_digit>
     e60:	8f 83       	std	Y+7, r24	; 0x07
     e62:	c7 01       	movw	r24, r14
     e64:	b6 01       	movw	r22, r12
     e66:	0e 94 5e 01 	call	0x2bc	; 0x2bc <common_get_third_digit>
     e6a:	88 87       	std	Y+8, r24	; 0x08
     e6c:	c7 01       	movw	r24, r14
     e6e:	b6 01       	movw	r22, r12
     e70:	0e 94 6e 01 	call	0x2dc	; 0x2dc <common_get_second_digit>
     e74:	89 87       	std	Y+9, r24	; 0x09
     e76:	c7 01       	movw	r24, r14
     e78:	b6 01       	movw	r22, r12
     e7a:	0e 94 7e 01 	call	0x2fc	; 0x2fc <common_get_first_digit>
     e7e:	8a 87       	std	Y+10, r24	; 0x0a
     e80:	89 81       	ldd	r24, Y+1	; 0x01
     e82:	80 33       	cpi	r24, 0x30	; 48
     e84:	09 f0       	breq	.+2      	; 0xe88 <USART_print_number+0x9e>
     e86:	7d c0       	rjmp	.+250    	; 0xf82 <USART_print_number+0x198>
     e88:	8a 81       	ldd	r24, Y+2	; 0x02
     e8a:	80 33       	cpi	r24, 0x30	; 48
     e8c:	09 f0       	breq	.+2      	; 0xe90 <USART_print_number+0xa6>
     e8e:	7e c0       	rjmp	.+252    	; 0xf8c <USART_print_number+0x1a2>
     e90:	8b 81       	ldd	r24, Y+3	; 0x03
     e92:	80 33       	cpi	r24, 0x30	; 48
     e94:	09 f0       	breq	.+2      	; 0xe98 <USART_print_number+0xae>
     e96:	7d c0       	rjmp	.+250    	; 0xf92 <USART_print_number+0x1a8>
     e98:	8c 81       	ldd	r24, Y+4	; 0x04
     e9a:	80 33       	cpi	r24, 0x30	; 48
     e9c:	09 f0       	breq	.+2      	; 0xea0 <USART_print_number+0xb6>
     e9e:	79 c0       	rjmp	.+242    	; 0xf92 <USART_print_number+0x1a8>
     ea0:	8d 81       	ldd	r24, Y+5	; 0x05
     ea2:	80 33       	cpi	r24, 0x30	; 48
     ea4:	09 f0       	breq	.+2      	; 0xea8 <USART_print_number+0xbe>
     ea6:	75 c0       	rjmp	.+234    	; 0xf92 <USART_print_number+0x1a8>
     ea8:	8e 81       	ldd	r24, Y+6	; 0x06
     eaa:	80 33       	cpi	r24, 0x30	; 48
     eac:	09 f0       	breq	.+2      	; 0xeb0 <USART_print_number+0xc6>
     eae:	71 c0       	rjmp	.+226    	; 0xf92 <USART_print_number+0x1a8>
     eb0:	8f 81       	ldd	r24, Y+7	; 0x07
     eb2:	80 33       	cpi	r24, 0x30	; 48
     eb4:	09 f0       	breq	.+2      	; 0xeb8 <USART_print_number+0xce>
     eb6:	6d c0       	rjmp	.+218    	; 0xf92 <USART_print_number+0x1a8>
     eb8:	88 85       	ldd	r24, Y+8	; 0x08
     eba:	80 33       	cpi	r24, 0x30	; 48
     ebc:	09 f0       	breq	.+2      	; 0xec0 <USART_print_number+0xd6>
     ebe:	69 c0       	rjmp	.+210    	; 0xf92 <USART_print_number+0x1a8>
     ec0:	89 85       	ldd	r24, Y+9	; 0x09
     ec2:	80 33       	cpi	r24, 0x30	; 48
     ec4:	09 f0       	breq	.+2      	; 0xec8 <USART_print_number+0xde>
     ec6:	65 c0       	rjmp	.+202    	; 0xf92 <USART_print_number+0x1a8>
     ec8:	ce 01       	movw	r24, r28
     eca:	0a 96       	adiw	r24, 0x0a	; 10
     ecc:	0e 94 d9 06 	call	0xdb2	; 0xdb2 <USART_print>
     ed0:	7b c0       	rjmp	.+246    	; 0xfc8 <USART_print_number+0x1de>
     ed2:	8c 81       	ldd	r24, Y+4	; 0x04
     ed4:	80 33       	cpi	r24, 0x30	; 48
     ed6:	89 f4       	brne	.+34     	; 0xefa <USART_print_number+0x110>
     ed8:	8d 81       	ldd	r24, Y+5	; 0x05
     eda:	80 33       	cpi	r24, 0x30	; 48
     edc:	71 f4       	brne	.+28     	; 0xefa <USART_print_number+0x110>
     ede:	8e 81       	ldd	r24, Y+6	; 0x06
     ee0:	80 33       	cpi	r24, 0x30	; 48
     ee2:	59 f4       	brne	.+22     	; 0xefa <USART_print_number+0x110>
     ee4:	8f 81       	ldd	r24, Y+7	; 0x07
     ee6:	80 33       	cpi	r24, 0x30	; 48
     ee8:	41 f4       	brne	.+16     	; 0xefa <USART_print_number+0x110>
     eea:	88 85       	ldd	r24, Y+8	; 0x08
     eec:	80 33       	cpi	r24, 0x30	; 48
     eee:	29 f4       	brne	.+10     	; 0xefa <USART_print_number+0x110>
     ef0:	ce 01       	movw	r24, r28
     ef2:	09 96       	adiw	r24, 0x09	; 9
     ef4:	0e 94 d9 06 	call	0xdb2	; 0xdb2 <USART_print>
     ef8:	67 c0       	rjmp	.+206    	; 0xfc8 <USART_print_number+0x1de>
     efa:	8b 81       	ldd	r24, Y+3	; 0x03
     efc:	80 33       	cpi	r24, 0x30	; 48
     efe:	09 f0       	breq	.+2      	; 0xf02 <USART_print_number+0x118>
     f00:	4d c0       	rjmp	.+154    	; 0xf9c <USART_print_number+0x1b2>
     f02:	8c 81       	ldd	r24, Y+4	; 0x04
     f04:	80 33       	cpi	r24, 0x30	; 48
     f06:	09 f0       	breq	.+2      	; 0xf0a <USART_print_number+0x120>
     f08:	49 c0       	rjmp	.+146    	; 0xf9c <USART_print_number+0x1b2>
     f0a:	8d 81       	ldd	r24, Y+5	; 0x05
     f0c:	80 33       	cpi	r24, 0x30	; 48
     f0e:	09 f0       	breq	.+2      	; 0xf12 <USART_print_number+0x128>
     f10:	45 c0       	rjmp	.+138    	; 0xf9c <USART_print_number+0x1b2>
     f12:	8e 81       	ldd	r24, Y+6	; 0x06
     f14:	80 33       	cpi	r24, 0x30	; 48
     f16:	09 f0       	breq	.+2      	; 0xf1a <USART_print_number+0x130>
     f18:	41 c0       	rjmp	.+130    	; 0xf9c <USART_print_number+0x1b2>
     f1a:	8f 81       	ldd	r24, Y+7	; 0x07
     f1c:	80 33       	cpi	r24, 0x30	; 48
     f1e:	f1 f5       	brne	.+124    	; 0xf9c <USART_print_number+0x1b2>
     f20:	ce 01       	movw	r24, r28
     f22:	08 96       	adiw	r24, 0x08	; 8
     f24:	0e 94 d9 06 	call	0xdb2	; 0xdb2 <USART_print>
     f28:	4f c0       	rjmp	.+158    	; 0xfc8 <USART_print_number+0x1de>
     f2a:	8c 81       	ldd	r24, Y+4	; 0x04
     f2c:	80 33       	cpi	r24, 0x30	; 48
     f2e:	59 f4       	brne	.+22     	; 0xf46 <USART_print_number+0x15c>
     f30:	8d 81       	ldd	r24, Y+5	; 0x05
     f32:	80 33       	cpi	r24, 0x30	; 48
     f34:	41 f4       	brne	.+16     	; 0xf46 <USART_print_number+0x15c>
     f36:	8e 81       	ldd	r24, Y+6	; 0x06
     f38:	80 33       	cpi	r24, 0x30	; 48
     f3a:	29 f4       	brne	.+10     	; 0xf46 <USART_print_number+0x15c>
     f3c:	ce 01       	movw	r24, r28
     f3e:	07 96       	adiw	r24, 0x07	; 7
     f40:	0e 94 d9 06 	call	0xdb2	; 0xdb2 <USART_print>
     f44:	41 c0       	rjmp	.+130    	; 0xfc8 <USART_print_number+0x1de>
     f46:	8b 81       	ldd	r24, Y+3	; 0x03
     f48:	80 33       	cpi	r24, 0x30	; 48
     f4a:	89 f5       	brne	.+98     	; 0xfae <USART_print_number+0x1c4>
     f4c:	8c 81       	ldd	r24, Y+4	; 0x04
     f4e:	80 33       	cpi	r24, 0x30	; 48
     f50:	71 f5       	brne	.+92     	; 0xfae <USART_print_number+0x1c4>
     f52:	8d 81       	ldd	r24, Y+5	; 0x05
     f54:	80 33       	cpi	r24, 0x30	; 48
     f56:	59 f5       	brne	.+86     	; 0xfae <USART_print_number+0x1c4>
     f58:	ce 01       	movw	r24, r28
     f5a:	06 96       	adiw	r24, 0x06	; 6
     f5c:	0e 94 d9 06 	call	0xdb2	; 0xdb2 <USART_print>
     f60:	33 c0       	rjmp	.+102    	; 0xfc8 <USART_print_number+0x1de>
     f62:	8c 81       	ldd	r24, Y+4	; 0x04
     f64:	80 33       	cpi	r24, 0x30	; 48
     f66:	29 f4       	brne	.+10     	; 0xf72 <USART_print_number+0x188>
     f68:	ce 01       	movw	r24, r28
     f6a:	05 96       	adiw	r24, 0x05	; 5
     f6c:	0e 94 d9 06 	call	0xdb2	; 0xdb2 <USART_print>
     f70:	2b c0       	rjmp	.+86     	; 0xfc8 <USART_print_number+0x1de>
     f72:	8b 81       	ldd	r24, Y+3	; 0x03
     f74:	80 33       	cpi	r24, 0x30	; 48
     f76:	f9 f4       	brne	.+62     	; 0xfb6 <USART_print_number+0x1cc>
     f78:	ce 01       	movw	r24, r28
     f7a:	04 96       	adiw	r24, 0x04	; 4
     f7c:	0e 94 d9 06 	call	0xdb2	; 0xdb2 <USART_print>
     f80:	23 c0       	rjmp	.+70     	; 0xfc8 <USART_print_number+0x1de>
     f82:	ce 01       	movw	r24, r28
     f84:	01 96       	adiw	r24, 0x01	; 1
     f86:	0e 94 d9 06 	call	0xdb2	; 0xdb2 <USART_print>
     f8a:	1e c0       	rjmp	.+60     	; 0xfc8 <USART_print_number+0x1de>
     f8c:	80 33       	cpi	r24, 0x30	; 48
     f8e:	51 f4       	brne	.+20     	; 0xfa4 <USART_print_number+0x1ba>
     f90:	b4 cf       	rjmp	.-152    	; 0xefa <USART_print_number+0x110>
     f92:	8b 81       	ldd	r24, Y+3	; 0x03
     f94:	80 33       	cpi	r24, 0x30	; 48
     f96:	09 f0       	breq	.+2      	; 0xf9a <USART_print_number+0x1b0>
     f98:	b0 cf       	rjmp	.-160    	; 0xefa <USART_print_number+0x110>
     f9a:	9b cf       	rjmp	.-202    	; 0xed2 <USART_print_number+0xe8>
     f9c:	8b 81       	ldd	r24, Y+3	; 0x03
     f9e:	80 33       	cpi	r24, 0x30	; 48
     fa0:	91 f6       	brne	.-92     	; 0xf46 <USART_print_number+0x15c>
     fa2:	c3 cf       	rjmp	.-122    	; 0xf2a <USART_print_number+0x140>
     fa4:	80 33       	cpi	r24, 0x30	; 48
     fa6:	79 f2       	breq	.-98     	; 0xf46 <USART_print_number+0x15c>
     fa8:	80 33       	cpi	r24, 0x30	; 48
     faa:	51 f4       	brne	.+20     	; 0xfc0 <USART_print_number+0x1d6>
     fac:	e2 cf       	rjmp	.-60     	; 0xf72 <USART_print_number+0x188>
     fae:	8b 81       	ldd	r24, Y+3	; 0x03
     fb0:	80 33       	cpi	r24, 0x30	; 48
     fb2:	f9 f6       	brne	.-66     	; 0xf72 <USART_print_number+0x188>
     fb4:	d6 cf       	rjmp	.-84     	; 0xf62 <USART_print_number+0x178>
     fb6:	ce 01       	movw	r24, r28
     fb8:	03 96       	adiw	r24, 0x03	; 3
     fba:	0e 94 d9 06 	call	0xdb2	; 0xdb2 <USART_print>
     fbe:	04 c0       	rjmp	.+8      	; 0xfc8 <USART_print_number+0x1de>
     fc0:	ce 01       	movw	r24, r28
     fc2:	02 96       	adiw	r24, 0x02	; 2
     fc4:	0e 94 d9 06 	call	0xdb2	; 0xdb2 <USART_print>
     fc8:	2b 96       	adiw	r28, 0x0b	; 11
     fca:	0f b6       	in	r0, 0x3f	; 63
     fcc:	f8 94       	cli
     fce:	de bf       	out	0x3e, r29	; 62
     fd0:	0f be       	out	0x3f, r0	; 63
     fd2:	cd bf       	out	0x3d, r28	; 61
     fd4:	df 91       	pop	r29
     fd6:	cf 91       	pop	r28
     fd8:	ff 90       	pop	r15
     fda:	ef 90       	pop	r14
     fdc:	df 90       	pop	r13
     fde:	cf 90       	pop	r12
     fe0:	08 95       	ret

00000fe2 <USART_character_is_received>:
}

bool USART_character_is_received(void){
	
	if((UCSRA & (1 << RXC)) == 0)return false;
     fe2:	8b b1       	in	r24, 0x0b	; 11
	
	else return true;  
}
     fe4:	88 1f       	adc	r24, r24
     fe6:	88 27       	eor	r24, r24
     fe8:	88 1f       	adc	r24, r24
     fea:	08 95       	ret

00000fec <USART_empty_the_RX_buffer>:

void USART_empty_the_RX_buffer(void){
     fec:	82 e3       	ldi	r24, 0x32	; 50

	//if(USART_character_is_received()){
	for(uint8_t iterator = 0; iterator < 50; iterator++){
	
				uint8_t junk = UDR;
     fee:	9c b1       	in	r25, 0x0c	; 12
	#else
		//round up by default
		__ticks_dc = (uint32_t)(ceil(fabs(__tmp)));
	#endif

	__builtin_avr_delay_cycles(__ticks_dc);
     ff0:	e7 e4       	ldi	r30, 0x47	; 71
     ff2:	fd e0       	ldi	r31, 0x0D	; 13
     ff4:	31 97       	sbiw	r30, 0x01	; 1
     ff6:	f1 f7       	brne	.-4      	; 0xff4 <USART_empty_the_RX_buffer+0x8>
     ff8:	00 c0       	rjmp	.+0      	; 0xffa <USART_empty_the_RX_buffer+0xe>
     ffa:	00 00       	nop
     ffc:	81 50       	subi	r24, 0x01	; 1
}

void USART_empty_the_RX_buffer(void){

	//if(USART_character_is_received()){
	for(uint8_t iterator = 0; iterator < 50; iterator++){
     ffe:	b9 f7       	brne	.-18     	; 0xfee <USART_empty_the_RX_buffer+0x2>
	
				uint8_t junk = UDR;
				_delay_us(1700);		//ubaguje se displej ako se ne stavi delay
	}
	//}
}
    1000:	08 95       	ret

00001002 <__divsf3>:
    1002:	0e 94 15 08 	call	0x102a	; 0x102a <__divsf3x>
    1006:	0c 94 f6 08 	jmp	0x11ec	; 0x11ec <__fp_round>
    100a:	0e 94 ef 08 	call	0x11de	; 0x11de <__fp_pscB>
    100e:	58 f0       	brcs	.+22     	; 0x1026 <__divsf3+0x24>
    1010:	0e 94 e8 08 	call	0x11d0	; 0x11d0 <__fp_pscA>
    1014:	40 f0       	brcs	.+16     	; 0x1026 <__divsf3+0x24>
    1016:	29 f4       	brne	.+10     	; 0x1022 <__divsf3+0x20>
    1018:	5f 3f       	cpi	r21, 0xFF	; 255
    101a:	29 f0       	breq	.+10     	; 0x1026 <__divsf3+0x24>
    101c:	0c 94 df 08 	jmp	0x11be	; 0x11be <__fp_inf>
    1020:	51 11       	cpse	r21, r1
    1022:	0c 94 2a 09 	jmp	0x1254	; 0x1254 <__fp_szero>
    1026:	0c 94 e5 08 	jmp	0x11ca	; 0x11ca <__fp_nan>

0000102a <__divsf3x>:
    102a:	0e 94 07 09 	call	0x120e	; 0x120e <__fp_split3>
    102e:	68 f3       	brcs	.-38     	; 0x100a <__divsf3+0x8>

00001030 <__divsf3_pse>:
    1030:	99 23       	and	r25, r25
    1032:	b1 f3       	breq	.-20     	; 0x1020 <__divsf3+0x1e>
    1034:	55 23       	and	r21, r21
    1036:	91 f3       	breq	.-28     	; 0x101c <__divsf3+0x1a>
    1038:	95 1b       	sub	r25, r21
    103a:	55 0b       	sbc	r21, r21
    103c:	bb 27       	eor	r27, r27
    103e:	aa 27       	eor	r26, r26
    1040:	62 17       	cp	r22, r18
    1042:	73 07       	cpc	r23, r19
    1044:	84 07       	cpc	r24, r20
    1046:	38 f0       	brcs	.+14     	; 0x1056 <__divsf3_pse+0x26>
    1048:	9f 5f       	subi	r25, 0xFF	; 255
    104a:	5f 4f       	sbci	r21, 0xFF	; 255
    104c:	22 0f       	add	r18, r18
    104e:	33 1f       	adc	r19, r19
    1050:	44 1f       	adc	r20, r20
    1052:	aa 1f       	adc	r26, r26
    1054:	a9 f3       	breq	.-22     	; 0x1040 <__divsf3_pse+0x10>
    1056:	35 d0       	rcall	.+106    	; 0x10c2 <__divsf3_pse+0x92>
    1058:	0e 2e       	mov	r0, r30
    105a:	3a f0       	brmi	.+14     	; 0x106a <__divsf3_pse+0x3a>
    105c:	e0 e8       	ldi	r30, 0x80	; 128
    105e:	32 d0       	rcall	.+100    	; 0x10c4 <__divsf3_pse+0x94>
    1060:	91 50       	subi	r25, 0x01	; 1
    1062:	50 40       	sbci	r21, 0x00	; 0
    1064:	e6 95       	lsr	r30
    1066:	00 1c       	adc	r0, r0
    1068:	ca f7       	brpl	.-14     	; 0x105c <__divsf3_pse+0x2c>
    106a:	2b d0       	rcall	.+86     	; 0x10c2 <__divsf3_pse+0x92>
    106c:	fe 2f       	mov	r31, r30
    106e:	29 d0       	rcall	.+82     	; 0x10c2 <__divsf3_pse+0x92>
    1070:	66 0f       	add	r22, r22
    1072:	77 1f       	adc	r23, r23
    1074:	88 1f       	adc	r24, r24
    1076:	bb 1f       	adc	r27, r27
    1078:	26 17       	cp	r18, r22
    107a:	37 07       	cpc	r19, r23
    107c:	48 07       	cpc	r20, r24
    107e:	ab 07       	cpc	r26, r27
    1080:	b0 e8       	ldi	r27, 0x80	; 128
    1082:	09 f0       	breq	.+2      	; 0x1086 <__divsf3_pse+0x56>
    1084:	bb 0b       	sbc	r27, r27
    1086:	80 2d       	mov	r24, r0
    1088:	bf 01       	movw	r22, r30
    108a:	ff 27       	eor	r31, r31
    108c:	93 58       	subi	r25, 0x83	; 131
    108e:	5f 4f       	sbci	r21, 0xFF	; 255
    1090:	3a f0       	brmi	.+14     	; 0x10a0 <__divsf3_pse+0x70>
    1092:	9e 3f       	cpi	r25, 0xFE	; 254
    1094:	51 05       	cpc	r21, r1
    1096:	78 f0       	brcs	.+30     	; 0x10b6 <__divsf3_pse+0x86>
    1098:	0c 94 df 08 	jmp	0x11be	; 0x11be <__fp_inf>
    109c:	0c 94 2a 09 	jmp	0x1254	; 0x1254 <__fp_szero>
    10a0:	5f 3f       	cpi	r21, 0xFF	; 255
    10a2:	e4 f3       	brlt	.-8      	; 0x109c <__divsf3_pse+0x6c>
    10a4:	98 3e       	cpi	r25, 0xE8	; 232
    10a6:	d4 f3       	brlt	.-12     	; 0x109c <__divsf3_pse+0x6c>
    10a8:	86 95       	lsr	r24
    10aa:	77 95       	ror	r23
    10ac:	67 95       	ror	r22
    10ae:	b7 95       	ror	r27
    10b0:	f7 95       	ror	r31
    10b2:	9f 5f       	subi	r25, 0xFF	; 255
    10b4:	c9 f7       	brne	.-14     	; 0x10a8 <__divsf3_pse+0x78>
    10b6:	88 0f       	add	r24, r24
    10b8:	91 1d       	adc	r25, r1
    10ba:	96 95       	lsr	r25
    10bc:	87 95       	ror	r24
    10be:	97 f9       	bld	r25, 7
    10c0:	08 95       	ret
    10c2:	e1 e0       	ldi	r30, 0x01	; 1
    10c4:	66 0f       	add	r22, r22
    10c6:	77 1f       	adc	r23, r23
    10c8:	88 1f       	adc	r24, r24
    10ca:	bb 1f       	adc	r27, r27
    10cc:	62 17       	cp	r22, r18
    10ce:	73 07       	cpc	r23, r19
    10d0:	84 07       	cpc	r24, r20
    10d2:	ba 07       	cpc	r27, r26
    10d4:	20 f0       	brcs	.+8      	; 0x10de <__divsf3_pse+0xae>
    10d6:	62 1b       	sub	r22, r18
    10d8:	73 0b       	sbc	r23, r19
    10da:	84 0b       	sbc	r24, r20
    10dc:	ba 0b       	sbc	r27, r26
    10de:	ee 1f       	adc	r30, r30
    10e0:	88 f7       	brcc	.-30     	; 0x10c4 <__divsf3_pse+0x94>
    10e2:	e0 95       	com	r30
    10e4:	08 95       	ret

000010e6 <__fixunssfsi>:
    10e6:	0e 94 0f 09 	call	0x121e	; 0x121e <__fp_splitA>
    10ea:	88 f0       	brcs	.+34     	; 0x110e <__fixunssfsi+0x28>
    10ec:	9f 57       	subi	r25, 0x7F	; 127
    10ee:	98 f0       	brcs	.+38     	; 0x1116 <__fixunssfsi+0x30>
    10f0:	b9 2f       	mov	r27, r25
    10f2:	99 27       	eor	r25, r25
    10f4:	b7 51       	subi	r27, 0x17	; 23
    10f6:	b0 f0       	brcs	.+44     	; 0x1124 <__fixunssfsi+0x3e>
    10f8:	e1 f0       	breq	.+56     	; 0x1132 <__fixunssfsi+0x4c>
    10fa:	66 0f       	add	r22, r22
    10fc:	77 1f       	adc	r23, r23
    10fe:	88 1f       	adc	r24, r24
    1100:	99 1f       	adc	r25, r25
    1102:	1a f0       	brmi	.+6      	; 0x110a <__fixunssfsi+0x24>
    1104:	ba 95       	dec	r27
    1106:	c9 f7       	brne	.-14     	; 0x10fa <__fixunssfsi+0x14>
    1108:	14 c0       	rjmp	.+40     	; 0x1132 <__fixunssfsi+0x4c>
    110a:	b1 30       	cpi	r27, 0x01	; 1
    110c:	91 f0       	breq	.+36     	; 0x1132 <__fixunssfsi+0x4c>
    110e:	0e 94 29 09 	call	0x1252	; 0x1252 <__fp_zero>
    1112:	b1 e0       	ldi	r27, 0x01	; 1
    1114:	08 95       	ret
    1116:	0c 94 29 09 	jmp	0x1252	; 0x1252 <__fp_zero>
    111a:	67 2f       	mov	r22, r23
    111c:	78 2f       	mov	r23, r24
    111e:	88 27       	eor	r24, r24
    1120:	b8 5f       	subi	r27, 0xF8	; 248
    1122:	39 f0       	breq	.+14     	; 0x1132 <__fixunssfsi+0x4c>
    1124:	b9 3f       	cpi	r27, 0xF9	; 249
    1126:	cc f3       	brlt	.-14     	; 0x111a <__fixunssfsi+0x34>
    1128:	86 95       	lsr	r24
    112a:	77 95       	ror	r23
    112c:	67 95       	ror	r22
    112e:	b3 95       	inc	r27
    1130:	d9 f7       	brne	.-10     	; 0x1128 <__fixunssfsi+0x42>
    1132:	3e f4       	brtc	.+14     	; 0x1142 <__fixunssfsi+0x5c>
    1134:	90 95       	com	r25
    1136:	80 95       	com	r24
    1138:	70 95       	com	r23
    113a:	61 95       	neg	r22
    113c:	7f 4f       	sbci	r23, 0xFF	; 255
    113e:	8f 4f       	sbci	r24, 0xFF	; 255
    1140:	9f 4f       	sbci	r25, 0xFF	; 255
    1142:	08 95       	ret

00001144 <__floatunsisf>:
    1144:	e8 94       	clt
    1146:	09 c0       	rjmp	.+18     	; 0x115a <__floatsisf+0x12>

00001148 <__floatsisf>:
    1148:	97 fb       	bst	r25, 7
    114a:	3e f4       	brtc	.+14     	; 0x115a <__floatsisf+0x12>
    114c:	90 95       	com	r25
    114e:	80 95       	com	r24
    1150:	70 95       	com	r23
    1152:	61 95       	neg	r22
    1154:	7f 4f       	sbci	r23, 0xFF	; 255
    1156:	8f 4f       	sbci	r24, 0xFF	; 255
    1158:	9f 4f       	sbci	r25, 0xFF	; 255
    115a:	99 23       	and	r25, r25
    115c:	a9 f0       	breq	.+42     	; 0x1188 <__floatsisf+0x40>
    115e:	f9 2f       	mov	r31, r25
    1160:	96 e9       	ldi	r25, 0x96	; 150
    1162:	bb 27       	eor	r27, r27
    1164:	93 95       	inc	r25
    1166:	f6 95       	lsr	r31
    1168:	87 95       	ror	r24
    116a:	77 95       	ror	r23
    116c:	67 95       	ror	r22
    116e:	b7 95       	ror	r27
    1170:	f1 11       	cpse	r31, r1
    1172:	f8 cf       	rjmp	.-16     	; 0x1164 <__floatsisf+0x1c>
    1174:	fa f4       	brpl	.+62     	; 0x11b4 <__floatsisf+0x6c>
    1176:	bb 0f       	add	r27, r27
    1178:	11 f4       	brne	.+4      	; 0x117e <__floatsisf+0x36>
    117a:	60 ff       	sbrs	r22, 0
    117c:	1b c0       	rjmp	.+54     	; 0x11b4 <__floatsisf+0x6c>
    117e:	6f 5f       	subi	r22, 0xFF	; 255
    1180:	7f 4f       	sbci	r23, 0xFF	; 255
    1182:	8f 4f       	sbci	r24, 0xFF	; 255
    1184:	9f 4f       	sbci	r25, 0xFF	; 255
    1186:	16 c0       	rjmp	.+44     	; 0x11b4 <__floatsisf+0x6c>
    1188:	88 23       	and	r24, r24
    118a:	11 f0       	breq	.+4      	; 0x1190 <__floatsisf+0x48>
    118c:	96 e9       	ldi	r25, 0x96	; 150
    118e:	11 c0       	rjmp	.+34     	; 0x11b2 <__floatsisf+0x6a>
    1190:	77 23       	and	r23, r23
    1192:	21 f0       	breq	.+8      	; 0x119c <__floatsisf+0x54>
    1194:	9e e8       	ldi	r25, 0x8E	; 142
    1196:	87 2f       	mov	r24, r23
    1198:	76 2f       	mov	r23, r22
    119a:	05 c0       	rjmp	.+10     	; 0x11a6 <__floatsisf+0x5e>
    119c:	66 23       	and	r22, r22
    119e:	71 f0       	breq	.+28     	; 0x11bc <__floatsisf+0x74>
    11a0:	96 e8       	ldi	r25, 0x86	; 134
    11a2:	86 2f       	mov	r24, r22
    11a4:	70 e0       	ldi	r23, 0x00	; 0
    11a6:	60 e0       	ldi	r22, 0x00	; 0
    11a8:	2a f0       	brmi	.+10     	; 0x11b4 <__floatsisf+0x6c>
    11aa:	9a 95       	dec	r25
    11ac:	66 0f       	add	r22, r22
    11ae:	77 1f       	adc	r23, r23
    11b0:	88 1f       	adc	r24, r24
    11b2:	da f7       	brpl	.-10     	; 0x11aa <__floatsisf+0x62>
    11b4:	88 0f       	add	r24, r24
    11b6:	96 95       	lsr	r25
    11b8:	87 95       	ror	r24
    11ba:	97 f9       	bld	r25, 7
    11bc:	08 95       	ret

000011be <__fp_inf>:
    11be:	97 f9       	bld	r25, 7
    11c0:	9f 67       	ori	r25, 0x7F	; 127
    11c2:	80 e8       	ldi	r24, 0x80	; 128
    11c4:	70 e0       	ldi	r23, 0x00	; 0
    11c6:	60 e0       	ldi	r22, 0x00	; 0
    11c8:	08 95       	ret

000011ca <__fp_nan>:
    11ca:	9f ef       	ldi	r25, 0xFF	; 255
    11cc:	80 ec       	ldi	r24, 0xC0	; 192
    11ce:	08 95       	ret

000011d0 <__fp_pscA>:
    11d0:	00 24       	eor	r0, r0
    11d2:	0a 94       	dec	r0
    11d4:	16 16       	cp	r1, r22
    11d6:	17 06       	cpc	r1, r23
    11d8:	18 06       	cpc	r1, r24
    11da:	09 06       	cpc	r0, r25
    11dc:	08 95       	ret

000011de <__fp_pscB>:
    11de:	00 24       	eor	r0, r0
    11e0:	0a 94       	dec	r0
    11e2:	12 16       	cp	r1, r18
    11e4:	13 06       	cpc	r1, r19
    11e6:	14 06       	cpc	r1, r20
    11e8:	05 06       	cpc	r0, r21
    11ea:	08 95       	ret

000011ec <__fp_round>:
    11ec:	09 2e       	mov	r0, r25
    11ee:	03 94       	inc	r0
    11f0:	00 0c       	add	r0, r0
    11f2:	11 f4       	brne	.+4      	; 0x11f8 <__fp_round+0xc>
    11f4:	88 23       	and	r24, r24
    11f6:	52 f0       	brmi	.+20     	; 0x120c <__fp_round+0x20>
    11f8:	bb 0f       	add	r27, r27
    11fa:	40 f4       	brcc	.+16     	; 0x120c <__fp_round+0x20>
    11fc:	bf 2b       	or	r27, r31
    11fe:	11 f4       	brne	.+4      	; 0x1204 <__fp_round+0x18>
    1200:	60 ff       	sbrs	r22, 0
    1202:	04 c0       	rjmp	.+8      	; 0x120c <__fp_round+0x20>
    1204:	6f 5f       	subi	r22, 0xFF	; 255
    1206:	7f 4f       	sbci	r23, 0xFF	; 255
    1208:	8f 4f       	sbci	r24, 0xFF	; 255
    120a:	9f 4f       	sbci	r25, 0xFF	; 255
    120c:	08 95       	ret

0000120e <__fp_split3>:
    120e:	57 fd       	sbrc	r21, 7
    1210:	90 58       	subi	r25, 0x80	; 128
    1212:	44 0f       	add	r20, r20
    1214:	55 1f       	adc	r21, r21
    1216:	59 f0       	breq	.+22     	; 0x122e <__fp_splitA+0x10>
    1218:	5f 3f       	cpi	r21, 0xFF	; 255
    121a:	71 f0       	breq	.+28     	; 0x1238 <__fp_splitA+0x1a>
    121c:	47 95       	ror	r20

0000121e <__fp_splitA>:
    121e:	88 0f       	add	r24, r24
    1220:	97 fb       	bst	r25, 7
    1222:	99 1f       	adc	r25, r25
    1224:	61 f0       	breq	.+24     	; 0x123e <__fp_splitA+0x20>
    1226:	9f 3f       	cpi	r25, 0xFF	; 255
    1228:	79 f0       	breq	.+30     	; 0x1248 <__fp_splitA+0x2a>
    122a:	87 95       	ror	r24
    122c:	08 95       	ret
    122e:	12 16       	cp	r1, r18
    1230:	13 06       	cpc	r1, r19
    1232:	14 06       	cpc	r1, r20
    1234:	55 1f       	adc	r21, r21
    1236:	f2 cf       	rjmp	.-28     	; 0x121c <__fp_split3+0xe>
    1238:	46 95       	lsr	r20
    123a:	f1 df       	rcall	.-30     	; 0x121e <__fp_splitA>
    123c:	08 c0       	rjmp	.+16     	; 0x124e <__fp_splitA+0x30>
    123e:	16 16       	cp	r1, r22
    1240:	17 06       	cpc	r1, r23
    1242:	18 06       	cpc	r1, r24
    1244:	99 1f       	adc	r25, r25
    1246:	f1 cf       	rjmp	.-30     	; 0x122a <__fp_splitA+0xc>
    1248:	86 95       	lsr	r24
    124a:	71 05       	cpc	r23, r1
    124c:	61 05       	cpc	r22, r1
    124e:	08 94       	sec
    1250:	08 95       	ret

00001252 <__fp_zero>:
    1252:	e8 94       	clt

00001254 <__fp_szero>:
    1254:	bb 27       	eor	r27, r27
    1256:	66 27       	eor	r22, r22
    1258:	77 27       	eor	r23, r23
    125a:	cb 01       	movw	r24, r22
    125c:	97 f9       	bld	r25, 7
    125e:	08 95       	ret

00001260 <__mulsf3>:
    1260:	0e 94 43 09 	call	0x1286	; 0x1286 <__mulsf3x>
    1264:	0c 94 f6 08 	jmp	0x11ec	; 0x11ec <__fp_round>
    1268:	0e 94 e8 08 	call	0x11d0	; 0x11d0 <__fp_pscA>
    126c:	38 f0       	brcs	.+14     	; 0x127c <__mulsf3+0x1c>
    126e:	0e 94 ef 08 	call	0x11de	; 0x11de <__fp_pscB>
    1272:	20 f0       	brcs	.+8      	; 0x127c <__mulsf3+0x1c>
    1274:	95 23       	and	r25, r21
    1276:	11 f0       	breq	.+4      	; 0x127c <__mulsf3+0x1c>
    1278:	0c 94 df 08 	jmp	0x11be	; 0x11be <__fp_inf>
    127c:	0c 94 e5 08 	jmp	0x11ca	; 0x11ca <__fp_nan>
    1280:	11 24       	eor	r1, r1
    1282:	0c 94 2a 09 	jmp	0x1254	; 0x1254 <__fp_szero>

00001286 <__mulsf3x>:
    1286:	0e 94 07 09 	call	0x120e	; 0x120e <__fp_split3>
    128a:	70 f3       	brcs	.-36     	; 0x1268 <__mulsf3+0x8>

0000128c <__mulsf3_pse>:
    128c:	95 9f       	mul	r25, r21
    128e:	c1 f3       	breq	.-16     	; 0x1280 <__mulsf3+0x20>
    1290:	95 0f       	add	r25, r21
    1292:	50 e0       	ldi	r21, 0x00	; 0
    1294:	55 1f       	adc	r21, r21
    1296:	62 9f       	mul	r22, r18
    1298:	f0 01       	movw	r30, r0
    129a:	72 9f       	mul	r23, r18
    129c:	bb 27       	eor	r27, r27
    129e:	f0 0d       	add	r31, r0
    12a0:	b1 1d       	adc	r27, r1
    12a2:	63 9f       	mul	r22, r19
    12a4:	aa 27       	eor	r26, r26
    12a6:	f0 0d       	add	r31, r0
    12a8:	b1 1d       	adc	r27, r1
    12aa:	aa 1f       	adc	r26, r26
    12ac:	64 9f       	mul	r22, r20
    12ae:	66 27       	eor	r22, r22
    12b0:	b0 0d       	add	r27, r0
    12b2:	a1 1d       	adc	r26, r1
    12b4:	66 1f       	adc	r22, r22
    12b6:	82 9f       	mul	r24, r18
    12b8:	22 27       	eor	r18, r18
    12ba:	b0 0d       	add	r27, r0
    12bc:	a1 1d       	adc	r26, r1
    12be:	62 1f       	adc	r22, r18
    12c0:	73 9f       	mul	r23, r19
    12c2:	b0 0d       	add	r27, r0
    12c4:	a1 1d       	adc	r26, r1
    12c6:	62 1f       	adc	r22, r18
    12c8:	83 9f       	mul	r24, r19
    12ca:	a0 0d       	add	r26, r0
    12cc:	61 1d       	adc	r22, r1
    12ce:	22 1f       	adc	r18, r18
    12d0:	74 9f       	mul	r23, r20
    12d2:	33 27       	eor	r19, r19
    12d4:	a0 0d       	add	r26, r0
    12d6:	61 1d       	adc	r22, r1
    12d8:	23 1f       	adc	r18, r19
    12da:	84 9f       	mul	r24, r20
    12dc:	60 0d       	add	r22, r0
    12de:	21 1d       	adc	r18, r1
    12e0:	82 2f       	mov	r24, r18
    12e2:	76 2f       	mov	r23, r22
    12e4:	6a 2f       	mov	r22, r26
    12e6:	11 24       	eor	r1, r1
    12e8:	9f 57       	subi	r25, 0x7F	; 127
    12ea:	50 40       	sbci	r21, 0x00	; 0
    12ec:	9a f0       	brmi	.+38     	; 0x1314 <__mulsf3_pse+0x88>
    12ee:	f1 f0       	breq	.+60     	; 0x132c <__mulsf3_pse+0xa0>
    12f0:	88 23       	and	r24, r24
    12f2:	4a f0       	brmi	.+18     	; 0x1306 <__mulsf3_pse+0x7a>
    12f4:	ee 0f       	add	r30, r30
    12f6:	ff 1f       	adc	r31, r31
    12f8:	bb 1f       	adc	r27, r27
    12fa:	66 1f       	adc	r22, r22
    12fc:	77 1f       	adc	r23, r23
    12fe:	88 1f       	adc	r24, r24
    1300:	91 50       	subi	r25, 0x01	; 1
    1302:	50 40       	sbci	r21, 0x00	; 0
    1304:	a9 f7       	brne	.-22     	; 0x12f0 <__mulsf3_pse+0x64>
    1306:	9e 3f       	cpi	r25, 0xFE	; 254
    1308:	51 05       	cpc	r21, r1
    130a:	80 f0       	brcs	.+32     	; 0x132c <__mulsf3_pse+0xa0>
    130c:	0c 94 df 08 	jmp	0x11be	; 0x11be <__fp_inf>
    1310:	0c 94 2a 09 	jmp	0x1254	; 0x1254 <__fp_szero>
    1314:	5f 3f       	cpi	r21, 0xFF	; 255
    1316:	e4 f3       	brlt	.-8      	; 0x1310 <__mulsf3_pse+0x84>
    1318:	98 3e       	cpi	r25, 0xE8	; 232
    131a:	d4 f3       	brlt	.-12     	; 0x1310 <__mulsf3_pse+0x84>
    131c:	86 95       	lsr	r24
    131e:	77 95       	ror	r23
    1320:	67 95       	ror	r22
    1322:	b7 95       	ror	r27
    1324:	f7 95       	ror	r31
    1326:	e7 95       	ror	r30
    1328:	9f 5f       	subi	r25, 0xFF	; 255
    132a:	c1 f7       	brne	.-16     	; 0x131c <__mulsf3_pse+0x90>
    132c:	fe 2b       	or	r31, r30
    132e:	88 0f       	add	r24, r24
    1330:	91 1d       	adc	r25, r1
    1332:	96 95       	lsr	r25
    1334:	87 95       	ror	r24
    1336:	97 f9       	bld	r25, 7
    1338:	08 95       	ret

0000133a <round>:
    133a:	0e 94 0f 09 	call	0x121e	; 0x121e <__fp_splitA>
    133e:	e8 f0       	brcs	.+58     	; 0x137a <round+0x40>
    1340:	9e 37       	cpi	r25, 0x7E	; 126
    1342:	e8 f0       	brcs	.+58     	; 0x137e <round+0x44>
    1344:	96 39       	cpi	r25, 0x96	; 150
    1346:	b8 f4       	brcc	.+46     	; 0x1376 <round+0x3c>
    1348:	9e 38       	cpi	r25, 0x8E	; 142
    134a:	48 f4       	brcc	.+18     	; 0x135e <round+0x24>
    134c:	67 2f       	mov	r22, r23
    134e:	78 2f       	mov	r23, r24
    1350:	88 27       	eor	r24, r24
    1352:	98 5f       	subi	r25, 0xF8	; 248
    1354:	f9 cf       	rjmp	.-14     	; 0x1348 <round+0xe>
    1356:	86 95       	lsr	r24
    1358:	77 95       	ror	r23
    135a:	67 95       	ror	r22
    135c:	93 95       	inc	r25
    135e:	95 39       	cpi	r25, 0x95	; 149
    1360:	d0 f3       	brcs	.-12     	; 0x1356 <round+0x1c>
    1362:	b6 2f       	mov	r27, r22
    1364:	b1 70       	andi	r27, 0x01	; 1
    1366:	6b 0f       	add	r22, r27
    1368:	71 1d       	adc	r23, r1
    136a:	81 1d       	adc	r24, r1
    136c:	20 f4       	brcc	.+8      	; 0x1376 <round+0x3c>
    136e:	87 95       	ror	r24
    1370:	77 95       	ror	r23
    1372:	67 95       	ror	r22
    1374:	93 95       	inc	r25
    1376:	0c 94 c1 09 	jmp	0x1382	; 0x1382 <__fp_mintl>
    137a:	0c 94 dc 09 	jmp	0x13b8	; 0x13b8 <__fp_mpack>
    137e:	0c 94 2a 09 	jmp	0x1254	; 0x1254 <__fp_szero>

00001382 <__fp_mintl>:
    1382:	88 23       	and	r24, r24
    1384:	71 f4       	brne	.+28     	; 0x13a2 <__fp_mintl+0x20>
    1386:	77 23       	and	r23, r23
    1388:	21 f0       	breq	.+8      	; 0x1392 <__fp_mintl+0x10>
    138a:	98 50       	subi	r25, 0x08	; 8
    138c:	87 2b       	or	r24, r23
    138e:	76 2f       	mov	r23, r22
    1390:	07 c0       	rjmp	.+14     	; 0x13a0 <__fp_mintl+0x1e>
    1392:	66 23       	and	r22, r22
    1394:	11 f4       	brne	.+4      	; 0x139a <__fp_mintl+0x18>
    1396:	99 27       	eor	r25, r25
    1398:	0d c0       	rjmp	.+26     	; 0x13b4 <__fp_mintl+0x32>
    139a:	90 51       	subi	r25, 0x10	; 16
    139c:	86 2b       	or	r24, r22
    139e:	70 e0       	ldi	r23, 0x00	; 0
    13a0:	60 e0       	ldi	r22, 0x00	; 0
    13a2:	2a f0       	brmi	.+10     	; 0x13ae <__fp_mintl+0x2c>
    13a4:	9a 95       	dec	r25
    13a6:	66 0f       	add	r22, r22
    13a8:	77 1f       	adc	r23, r23
    13aa:	88 1f       	adc	r24, r24
    13ac:	da f7       	brpl	.-10     	; 0x13a4 <__fp_mintl+0x22>
    13ae:	88 0f       	add	r24, r24
    13b0:	96 95       	lsr	r25
    13b2:	87 95       	ror	r24
    13b4:	97 f9       	bld	r25, 7
    13b6:	08 95       	ret

000013b8 <__fp_mpack>:
    13b8:	9f 3f       	cpi	r25, 0xFF	; 255
    13ba:	31 f0       	breq	.+12     	; 0x13c8 <__fp_mpack_finite+0xc>

000013bc <__fp_mpack_finite>:
    13bc:	91 50       	subi	r25, 0x01	; 1
    13be:	20 f4       	brcc	.+8      	; 0x13c8 <__fp_mpack_finite+0xc>
    13c0:	87 95       	ror	r24
    13c2:	77 95       	ror	r23
    13c4:	67 95       	ror	r22
    13c6:	b7 95       	ror	r27
    13c8:	88 0f       	add	r24, r24
    13ca:	91 1d       	adc	r25, r1
    13cc:	96 95       	lsr	r25
    13ce:	87 95       	ror	r24
    13d0:	97 f9       	bld	r25, 7
    13d2:	08 95       	ret

000013d4 <__divmodhi4>:
    13d4:	97 fb       	bst	r25, 7
    13d6:	07 2e       	mov	r0, r23
    13d8:	16 f4       	brtc	.+4      	; 0x13de <__divmodhi4+0xa>
    13da:	00 94       	com	r0
    13dc:	07 d0       	rcall	.+14     	; 0x13ec <__divmodhi4_neg1>
    13de:	77 fd       	sbrc	r23, 7
    13e0:	09 d0       	rcall	.+18     	; 0x13f4 <__divmodhi4_neg2>
    13e2:	0e 94 26 0a 	call	0x144c	; 0x144c <__udivmodhi4>
    13e6:	07 fc       	sbrc	r0, 7
    13e8:	05 d0       	rcall	.+10     	; 0x13f4 <__divmodhi4_neg2>
    13ea:	3e f4       	brtc	.+14     	; 0x13fa <__divmodhi4_exit>

000013ec <__divmodhi4_neg1>:
    13ec:	90 95       	com	r25
    13ee:	81 95       	neg	r24
    13f0:	9f 4f       	sbci	r25, 0xFF	; 255
    13f2:	08 95       	ret

000013f4 <__divmodhi4_neg2>:
    13f4:	70 95       	com	r23
    13f6:	61 95       	neg	r22
    13f8:	7f 4f       	sbci	r23, 0xFF	; 255

000013fa <__divmodhi4_exit>:
    13fa:	08 95       	ret

000013fc <__udivmodsi4>:
    13fc:	a1 e2       	ldi	r26, 0x21	; 33
    13fe:	1a 2e       	mov	r1, r26
    1400:	aa 1b       	sub	r26, r26
    1402:	bb 1b       	sub	r27, r27
    1404:	fd 01       	movw	r30, r26
    1406:	0d c0       	rjmp	.+26     	; 0x1422 <__udivmodsi4_ep>

00001408 <__udivmodsi4_loop>:
    1408:	aa 1f       	adc	r26, r26
    140a:	bb 1f       	adc	r27, r27
    140c:	ee 1f       	adc	r30, r30
    140e:	ff 1f       	adc	r31, r31
    1410:	a2 17       	cp	r26, r18
    1412:	b3 07       	cpc	r27, r19
    1414:	e4 07       	cpc	r30, r20
    1416:	f5 07       	cpc	r31, r21
    1418:	20 f0       	brcs	.+8      	; 0x1422 <__udivmodsi4_ep>
    141a:	a2 1b       	sub	r26, r18
    141c:	b3 0b       	sbc	r27, r19
    141e:	e4 0b       	sbc	r30, r20
    1420:	f5 0b       	sbc	r31, r21

00001422 <__udivmodsi4_ep>:
    1422:	66 1f       	adc	r22, r22
    1424:	77 1f       	adc	r23, r23
    1426:	88 1f       	adc	r24, r24
    1428:	99 1f       	adc	r25, r25
    142a:	1a 94       	dec	r1
    142c:	69 f7       	brne	.-38     	; 0x1408 <__udivmodsi4_loop>
    142e:	60 95       	com	r22
    1430:	70 95       	com	r23
    1432:	80 95       	com	r24
    1434:	90 95       	com	r25
    1436:	9b 01       	movw	r18, r22
    1438:	ac 01       	movw	r20, r24
    143a:	bd 01       	movw	r22, r26
    143c:	cf 01       	movw	r24, r30
    143e:	08 95       	ret

00001440 <__tablejump2__>:
    1440:	ee 0f       	add	r30, r30
    1442:	ff 1f       	adc	r31, r31
    1444:	05 90       	lpm	r0, Z+
    1446:	f4 91       	lpm	r31, Z
    1448:	e0 2d       	mov	r30, r0
    144a:	09 94       	ijmp

0000144c <__udivmodhi4>:
    144c:	aa 1b       	sub	r26, r26
    144e:	bb 1b       	sub	r27, r27
    1450:	51 e1       	ldi	r21, 0x11	; 17
    1452:	07 c0       	rjmp	.+14     	; 0x1462 <__udivmodhi4_ep>

00001454 <__udivmodhi4_loop>:
    1454:	aa 1f       	adc	r26, r26
    1456:	bb 1f       	adc	r27, r27
    1458:	a6 17       	cp	r26, r22
    145a:	b7 07       	cpc	r27, r23
    145c:	10 f0       	brcs	.+4      	; 0x1462 <__udivmodhi4_ep>
    145e:	a6 1b       	sub	r26, r22
    1460:	b7 0b       	sbc	r27, r23

00001462 <__udivmodhi4_ep>:
    1462:	88 1f       	adc	r24, r24
    1464:	99 1f       	adc	r25, r25
    1466:	5a 95       	dec	r21
    1468:	a9 f7       	brne	.-22     	; 0x1454 <__udivmodhi4_loop>
    146a:	80 95       	com	r24
    146c:	90 95       	com	r25
    146e:	bc 01       	movw	r22, r24
    1470:	cd 01       	movw	r24, r26
    1472:	08 95       	ret

00001474 <do_rand>:
    1474:	8f 92       	push	r8
    1476:	9f 92       	push	r9
    1478:	af 92       	push	r10
    147a:	bf 92       	push	r11
    147c:	cf 92       	push	r12
    147e:	df 92       	push	r13
    1480:	ef 92       	push	r14
    1482:	ff 92       	push	r15
    1484:	cf 93       	push	r28
    1486:	df 93       	push	r29
    1488:	ec 01       	movw	r28, r24
    148a:	68 81       	ld	r22, Y
    148c:	79 81       	ldd	r23, Y+1	; 0x01
    148e:	8a 81       	ldd	r24, Y+2	; 0x02
    1490:	9b 81       	ldd	r25, Y+3	; 0x03
    1492:	61 15       	cp	r22, r1
    1494:	71 05       	cpc	r23, r1
    1496:	81 05       	cpc	r24, r1
    1498:	91 05       	cpc	r25, r1
    149a:	21 f4       	brne	.+8      	; 0x14a4 <do_rand+0x30>
    149c:	64 e2       	ldi	r22, 0x24	; 36
    149e:	79 ed       	ldi	r23, 0xD9	; 217
    14a0:	8b e5       	ldi	r24, 0x5B	; 91
    14a2:	97 e0       	ldi	r25, 0x07	; 7
    14a4:	2d e1       	ldi	r18, 0x1D	; 29
    14a6:	33 ef       	ldi	r19, 0xF3	; 243
    14a8:	41 e0       	ldi	r20, 0x01	; 1
    14aa:	50 e0       	ldi	r21, 0x00	; 0
    14ac:	0e 94 9d 0a 	call	0x153a	; 0x153a <__divmodsi4>
    14b0:	49 01       	movw	r8, r18
    14b2:	5a 01       	movw	r10, r20
    14b4:	9b 01       	movw	r18, r22
    14b6:	ac 01       	movw	r20, r24
    14b8:	a7 ea       	ldi	r26, 0xA7	; 167
    14ba:	b1 e4       	ldi	r27, 0x41	; 65
    14bc:	0e 94 bc 0a 	call	0x1578	; 0x1578 <__muluhisi3>
    14c0:	6b 01       	movw	r12, r22
    14c2:	7c 01       	movw	r14, r24
    14c4:	ac ee       	ldi	r26, 0xEC	; 236
    14c6:	b4 ef       	ldi	r27, 0xF4	; 244
    14c8:	a5 01       	movw	r20, r10
    14ca:	94 01       	movw	r18, r8
    14cc:	0e 94 ca 0a 	call	0x1594	; 0x1594 <__mulohisi3>
    14d0:	dc 01       	movw	r26, r24
    14d2:	cb 01       	movw	r24, r22
    14d4:	8c 0d       	add	r24, r12
    14d6:	9d 1d       	adc	r25, r13
    14d8:	ae 1d       	adc	r26, r14
    14da:	bf 1d       	adc	r27, r15
    14dc:	b7 ff       	sbrs	r27, 7
    14de:	03 c0       	rjmp	.+6      	; 0x14e6 <do_rand+0x72>
    14e0:	01 97       	sbiw	r24, 0x01	; 1
    14e2:	a1 09       	sbc	r26, r1
    14e4:	b0 48       	sbci	r27, 0x80	; 128
    14e6:	88 83       	st	Y, r24
    14e8:	99 83       	std	Y+1, r25	; 0x01
    14ea:	aa 83       	std	Y+2, r26	; 0x02
    14ec:	bb 83       	std	Y+3, r27	; 0x03
    14ee:	9f 77       	andi	r25, 0x7F	; 127
    14f0:	df 91       	pop	r29
    14f2:	cf 91       	pop	r28
    14f4:	ff 90       	pop	r15
    14f6:	ef 90       	pop	r14
    14f8:	df 90       	pop	r13
    14fa:	cf 90       	pop	r12
    14fc:	bf 90       	pop	r11
    14fe:	af 90       	pop	r10
    1500:	9f 90       	pop	r9
    1502:	8f 90       	pop	r8
    1504:	08 95       	ret

00001506 <rand_r>:
    1506:	0e 94 3a 0a 	call	0x1474	; 0x1474 <do_rand>
    150a:	08 95       	ret

0000150c <rand>:
    150c:	80 e6       	ldi	r24, 0x60	; 96
    150e:	90 e0       	ldi	r25, 0x00	; 0
    1510:	0e 94 3a 0a 	call	0x1474	; 0x1474 <do_rand>
    1514:	08 95       	ret

00001516 <srand>:
    1516:	a0 e0       	ldi	r26, 0x00	; 0
    1518:	b0 e0       	ldi	r27, 0x00	; 0
    151a:	80 93 60 00 	sts	0x0060, r24	; 0x800060 <__data_start>
    151e:	90 93 61 00 	sts	0x0061, r25	; 0x800061 <__data_start+0x1>
    1522:	a0 93 62 00 	sts	0x0062, r26	; 0x800062 <__data_start+0x2>
    1526:	b0 93 63 00 	sts	0x0063, r27	; 0x800063 <__data_start+0x3>
    152a:	08 95       	ret

0000152c <strcpy>:
    152c:	fb 01       	movw	r30, r22
    152e:	dc 01       	movw	r26, r24
    1530:	01 90       	ld	r0, Z+
    1532:	0d 92       	st	X+, r0
    1534:	00 20       	and	r0, r0
    1536:	e1 f7       	brne	.-8      	; 0x1530 <strcpy+0x4>
    1538:	08 95       	ret

0000153a <__divmodsi4>:
    153a:	05 2e       	mov	r0, r21
    153c:	97 fb       	bst	r25, 7
    153e:	1e f4       	brtc	.+6      	; 0x1546 <__divmodsi4+0xc>
    1540:	00 94       	com	r0
    1542:	0e 94 b4 0a 	call	0x1568	; 0x1568 <__negsi2>
    1546:	57 fd       	sbrc	r21, 7
    1548:	07 d0       	rcall	.+14     	; 0x1558 <__divmodsi4_neg2>
    154a:	0e 94 fe 09 	call	0x13fc	; 0x13fc <__udivmodsi4>
    154e:	07 fc       	sbrc	r0, 7
    1550:	03 d0       	rcall	.+6      	; 0x1558 <__divmodsi4_neg2>
    1552:	4e f4       	brtc	.+18     	; 0x1566 <__divmodsi4_exit>
    1554:	0c 94 b4 0a 	jmp	0x1568	; 0x1568 <__negsi2>

00001558 <__divmodsi4_neg2>:
    1558:	50 95       	com	r21
    155a:	40 95       	com	r20
    155c:	30 95       	com	r19
    155e:	21 95       	neg	r18
    1560:	3f 4f       	sbci	r19, 0xFF	; 255
    1562:	4f 4f       	sbci	r20, 0xFF	; 255
    1564:	5f 4f       	sbci	r21, 0xFF	; 255

00001566 <__divmodsi4_exit>:
    1566:	08 95       	ret

00001568 <__negsi2>:
    1568:	90 95       	com	r25
    156a:	80 95       	com	r24
    156c:	70 95       	com	r23
    156e:	61 95       	neg	r22
    1570:	7f 4f       	sbci	r23, 0xFF	; 255
    1572:	8f 4f       	sbci	r24, 0xFF	; 255
    1574:	9f 4f       	sbci	r25, 0xFF	; 255
    1576:	08 95       	ret

00001578 <__muluhisi3>:
    1578:	0e 94 cf 0a 	call	0x159e	; 0x159e <__umulhisi3>
    157c:	a5 9f       	mul	r26, r21
    157e:	90 0d       	add	r25, r0
    1580:	b4 9f       	mul	r27, r20
    1582:	90 0d       	add	r25, r0
    1584:	a4 9f       	mul	r26, r20
    1586:	80 0d       	add	r24, r0
    1588:	91 1d       	adc	r25, r1
    158a:	11 24       	eor	r1, r1
    158c:	08 95       	ret

0000158e <__mulshisi3>:
    158e:	b7 ff       	sbrs	r27, 7
    1590:	0c 94 bc 0a 	jmp	0x1578	; 0x1578 <__muluhisi3>

00001594 <__mulohisi3>:
    1594:	0e 94 bc 0a 	call	0x1578	; 0x1578 <__muluhisi3>
    1598:	82 1b       	sub	r24, r18
    159a:	93 0b       	sbc	r25, r19
    159c:	08 95       	ret

0000159e <__umulhisi3>:
    159e:	a2 9f       	mul	r26, r18
    15a0:	b0 01       	movw	r22, r0
    15a2:	b3 9f       	mul	r27, r19
    15a4:	c0 01       	movw	r24, r0
    15a6:	a3 9f       	mul	r26, r19
    15a8:	70 0d       	add	r23, r0
    15aa:	81 1d       	adc	r24, r1
    15ac:	11 24       	eor	r1, r1
    15ae:	91 1d       	adc	r25, r1
    15b0:	b2 9f       	mul	r27, r18
    15b2:	70 0d       	add	r23, r0
    15b4:	81 1d       	adc	r24, r1
    15b6:	11 24       	eor	r1, r1
    15b8:	91 1d       	adc	r25, r1
    15ba:	08 95       	ret

000015bc <_exit>:
    15bc:	f8 94       	cli

000015be <__stop_program>:
    15be:	ff cf       	rjmp	.-2      	; 0x15be <__stop_program>
